

Microchip MPLAB XC8 Assembler V2.40 build 20220703182018 
                                                                                               Mon Sep 19 00:27:38 2022

Microchip MPLAB XC8 C Compiler v2.40 (Free license) build 20220703182018 Og1 
     1                           	processor	18F4620
     2                           	fnconf	rparam,??,?,0
     3                           	pagewidth 120
     4                           	opt	flic
     5                           	psect	idataCOMRAM,global,class=CODE,delta=1,noexec
     6                           	psect	cinit,global,reloc=2,class=CODE,delta=1
     7                           	psect	bssCOMRAM,global,class=COMRAM,space=1,delta=1,lowdata,noexec
     8                           	psect	dataCOMRAM,global,class=COMRAM,space=1,delta=1,lowdata,noexec
     9                           	psect	cstackCOMRAM,global,class=COMRAM,space=1,delta=1,lowdata,noexec
    10                           	psect	text0,global,reloc=2,class=CODE,delta=1
    11                           	psect	text1,global,reloc=2,class=CODE,delta=1
    12                           	psect	text2,global,reloc=2,class=CODE,delta=1
    13                           	psect	text3,global,reloc=2,class=CODE,delta=1
    14                           	psect	text4,global,reloc=2,class=CODE,delta=1
    15                           	psect	text5,global,reloc=2,class=CODE,delta=1
    16                           	psect	text6,global,reloc=2,class=CODE,delta=1
    17                           	psect	intsave_regs,global,class=BIGRAM,space=1,delta=1,noexec
    18                           	psect	rparam,global,class=COMRAM,space=1,delta=1,noexec
    19                           	psect	idloc,global,abs,ovrld,class=IDLOC,space=5,delta=1,noexec
    20                           	psect	config,global,abs,ovrld,class=CONFIG,space=4,delta=1,noexec
    21   000000                     
    22                           ; Version 2.40
    23                           ; Generated 17/11/2021 GMT
    24                           ; 
    25                           ; Copyright © 2021, Microchip Technology Inc. and its subsidiaries ("Microchip")
    26                           ; All rights reserved.
    27                           ; 
    28                           ; This software is developed by Microchip Technology Inc. and its subsidiaries ("Microch
      +                          ip").
    29                           ; 
    30                           ; Redistribution and use in source and binary forms, with or without modification, are
    31                           ; permitted provided that the following conditions are met:
    32                           ; 
    33                           ;     1. Redistributions of source code must retain the above copyright notice, this lis
      +                          t of
    34                           ;        conditions and the following disclaimer.
    35                           ; 
    36                           ;     2. Redistributions in binary form must reproduce the above copyright notice, this 
      +                          list
    37                           ;        of conditions and the following disclaimer in the documentation and/or other
    38                           ;        materials provided with the distribution. Publication is not required when
    39                           ;        this file is used in an embedded application.
    40                           ; 
    41                           ;     3. Microchip's name may not be used to endorse or promote products derived from th
      +                          is
    42                           ;        software without specific prior written permission.
    43                           ; 
    44                           ; THIS SOFTWARE IS PROVIDED BY MICROCHIP "AS IS" AND ANY EXPRESS OR IMPLIED WARRANTIES,
    45                           ; INCLUDING, BUT NOT LIMITED TO, THE IMPLIED WARRANTIES OF MERCHANTABILITY AND FITNESS F
      +                          OR
    46                           ; PURPOSE ARE DISCLAIMED.  IN NO EVENT SHALL MICROCHIP BE LIABLE FOR ANY DIRECT, INDIREC
      +                          T,
    47                           ; INCIDENTAL, SPECIAL, EXEMPLARY, OR CONSEQUENTIAL DAMAGES (INCLUDING BUT NOT LIMITED TO
    48                           ; PROCUREMENT OF SUBSTITUTE GOODS OR SERVICES; LOSS OF USE, DATA OR PROFITS; OR BUSINESS
    49                           ; INTERRUPTION) HOWSOEVER CAUSED AND ON ANY THEORY OF LIABILITY, WHETHER IN CONTRACT, ST
      +                          RICT
    50                           ; LIABILITY, OR TORT (INCLUDING NEGLIGENCE OR OTHERWISE) ARISING IN ANY WAY OUT OF THE U
      +                          SE OF
    51                           ; THIS SOFTWARE, EVEN IF ADVISED OF THE POSSIBILITY OF SUCH DAMAGE.
    52                           ; 
    53                           ; 
    54                           ; Code-generator required, PIC18F4620 Definitions
    55                           ; 
    56                           ; SFR Addresses
    57   000000                     
    58                           	psect	idataCOMRAM
    59   00FAFB                     __pidataCOMRAM:
    60                           	callstack 0
    61                           
    62                           ;initializer for _port_register
    63   00FAFB  80                 	db	128
    64   00FAFC  0F                 	db	15
    65   00FAFD  81                 	db	129
    66   00FAFE  0F                 	db	15
    67   00FAFF  82                 	db	130
    68   00FB00  0F                 	db	15
    69   00FB01  83                 	db	131
    70   00FB02  0F                 	db	15
    71   00FB03  84                 	db	132
    72   00FB04  0F                 	db	15
    73                           
    74                           ;initializer for _lat_register
    75   00FB05  89                 	db	137
    76   00FB06  0F                 	db	15
    77   00FB07  8A                 	db	138
    78   00FB08  0F                 	db	15
    79   00FB09  8B                 	db	139
    80   00FB0A  0F                 	db	15
    81   00FB0B  8C                 	db	140
    82   00FB0C  0F                 	db	15
    83   00FB0D  8D                 	db	141
    84   00FB0E  0F                 	db	15
    85                           
    86                           ;initializer for _tris_register
    87   00FB0F  92                 	db	146
    88   00FB10  0F                 	db	15
    89   00FB11  93                 	db	147
    90   00FB12  0F                 	db	15
    91   00FB13  94                 	db	148
    92   00FB14  0F                 	db	15
    93   00FB15  95                 	db	149
    94   00FB16  0F                 	db	15
    95   00FB17  96                 	db	150
    96   00FB18  0F                 	db	15
    97                           
    98                           ;initializer for _ret
    99   00FB19  01                 	db	1
   100                           
   101                           ;initializer for _relay2
   102   00FB1A  12                 	db	18
   103                           
   104                           ;initializer for _relay1
   105   00FB1B  02                 	db	2
   106   000000                     _PORTE	set	3972
   107   000000                     _PORTD	set	3971
   108   000000                     _PORTC	set	3970
   109   000000                     _PORTB	set	3969
   110   000000                     _PORTA	set	3968
   111   000000                     _LATA	set	3977
   112   000000                     _TRISA	set	3986
   113   000000                     _TRISE	set	3990
   114   000000                     _TRISD	set	3989
   115   000000                     _TRISC	set	3988
   116   000000                     _TRISB	set	3987
   117   000000                     _LATE	set	3981
   118   000000                     _LATD	set	3980
   119   000000                     _LATC	set	3979
   120   000000                     _LATB	set	3978
   121                           
   122                           ; #config settings
   123                           
   124                           	psect	cinit
   125   00FB1C                     __pcinit:
   126                           	callstack 0
   127   00FB1C                     start_initialization:
   128                           	callstack 0
   129   00FB1C                     __initialization:
   130                           	callstack 0
   131                           
   132                           ; Initialize objects allocated to COMRAM (33 bytes)
   133                           ; load TBLPTR registers with __pidataCOMRAM
   134   00FB1C  0EFB               	movlw	low __pidataCOMRAM
   135   00FB1E  6EF6               	movwf	tblptrl,c
   136   00FB20  0EFA               	movlw	high __pidataCOMRAM
   137   00FB22  6EF7               	movwf	tblptrh,c
   138   00FB24  0E00               	movlw	low (__pidataCOMRAM shr (0+16))
   139   00FB26  6EF8               	movwf	tblptru,c
   140   00FB28  EE00  F001         	lfsr	0,__pdataCOMRAM
   141   00FB2C  EE10 F021          	lfsr	1,33
   142   00FB30                     copy_data0:
   143   00FB30  0009               	tblrd		*+
   144   00FB32  CFF5 FFEE          	movff	tablat,postinc0
   145   00FB36  50E5               	movf	postdec1,w,c
   146   00FB38  50E1               	movf	fsr1l,w,c
   147   00FB3A  E1FA               	bnz	copy_data0
   148                           
   149                           ; Clear objects allocated to COMRAM (7 bytes)
   150   00FB3C  EE00  F032         	lfsr	0,__pbssCOMRAM
   151   00FB40  0E07               	movlw	7
   152   00FB42                     clear_0:
   153   00FB42  6AEE               	clrf	postinc0,c
   154   00FB44  06E8               	decf	wreg,f,c
   155   00FB46  E1FD               	bnz	clear_0
   156   00FB48                     end_of_initialization:
   157                           	callstack 0
   158   00FB48                     __end_of__initialization:
   159                           	callstack 0
   160   00FB48  0E00               	movlw	low (__Lmediumconst shr (0+16))
   161   00FB4A  6EF8               	movwf	tblptru,c
   162   00FB4C  0100               	movlb	0
   163   00FB4E  EFA9  F07D         	goto	_main	;jump to C main() function
   164                           
   165                           	psect	bssCOMRAM
   166   000032                     __pbssCOMRAM:
   167                           	callstack 0
   168   000032                     relay_turn_off@F2880:
   169                           	callstack 0
   170   000032                     	ds	1
   171   000033                     relay_turn_on@F2875:
   172                           	callstack 0
   173   000033                     	ds	1
   174   000034                     relay_initialize@F2870:
   175                           	callstack 0
   176   000034                     	ds	1
   177   000035                     led_toggle_logic@F2891:
   178                           	callstack 0
   179   000035                     	ds	1
   180   000036                     led_turn_off@F2886:
   181                           	callstack 0
   182   000036                     	ds	1
   183   000037                     led_turn_on@F2881:
   184                           	callstack 0
   185   000037                     	ds	1
   186   000038                     led_initialize@F2876:
   187                           	callstack 0
   188   000038                     	ds	1
   189                           
   190                           	psect	dataCOMRAM
   191   000001                     __pdataCOMRAM:
   192                           	callstack 0
   193   000001                     _port_register:
   194                           	callstack 0
   195   000001                     	ds	10
   196   00000B                     _lat_register:
   197                           	callstack 0
   198   00000B                     	ds	10
   199   000015                     _tris_register:
   200                           	callstack 0
   201   000015                     	ds	10
   202   00001F                     _ret:
   203                           	callstack 0
   204   00001F                     	ds	1
   205   000020                     _relay2:
   206                           	callstack 0
   207   000020                     	ds	1
   208   000021                     _relay1:
   209                           	callstack 0
   210   000021                     	ds	1
   211                           
   212                           	psect	cstackCOMRAM
   213   000022                     __pcstackCOMRAM:
   214                           	callstack 0
   215   000022                     gpio_pin_direction_init@_pin_config_t:
   216                           	callstack 0
   217   000022                     gpio_pin_write_logic@_pin_config_t:
   218                           	callstack 0
   219                           
   220                           ; 2 bytes @ 0x0
   221   000022                     	ds	2
   222   000024                     ??_gpio_pin_direction_init:
   223   000024                     gpio_pin_write_logic@logic:
   224                           	callstack 0
   225                           
   226                           ; 1 bytes @ 0x2
   227   000024                     	ds	1
   228   000025                     ??_gpio_pin_write_logic:
   229                           
   230                           ; 1 bytes @ 0x3
   231   000025                     	ds	5
   232   00002A                     gpio_pin_direction_init@ret:
   233                           	callstack 0
   234                           
   235                           ; 1 bytes @ 0x8
   236   00002A                     	ds	1
   237   00002B                     relay_initialize@relay:
   238                           	callstack 0
   239   00002B                     relay_turn_on@relay:
   240                           	callstack 0
   241   00002B                     relay_turn_off@relay:
   242                           	callstack 0
   243                           
   244                           ; 2 bytes @ 0x9
   245   00002B                     	ds	2
   246   00002D                     ??_relay_turn_on:
   247   00002D                     ??_relay_turn_off:
   248   00002D                     ??_relay_initialize:
   249                           
   250                           ; 1 bytes @ 0xB
   251   00002D                     	ds	1
   252   00002E                     relay_initialize@ret:
   253                           	callstack 0
   254   00002E                     relay_turn_on@ret:
   255                           	callstack 0
   256   00002E                     relay_turn_off@ret:
   257                           	callstack 0
   258                           
   259                           ; 1 bytes @ 0xC
   260   00002E                     	ds	1
   261   00002F                     relay_initialize@relayy:
   262                           	callstack 0
   263   00002F                     relay_turn_on@relayy:
   264                           	callstack 0
   265   00002F                     relay_turn_off@relayy:
   266                           	callstack 0
   267                           
   268                           ; 1 bytes @ 0xD
   269   00002F                     	ds	1
   270   000030                     ??_main:
   271                           
   272                           ; 1 bytes @ 0xE
   273   000030                     	ds	2
   274                           
   275 ;;
   276 ;;Main: autosize = 0, tempsize = 2, incstack = 0, save=0
   277 ;;
   278 ;; *************** function _main *****************
   279 ;; Defined at:
   280 ;;		line 24 in file "Application.c"
   281 ;; Parameters:    Size  Location     Type
   282 ;;		None
   283 ;; Auto vars:     Size  Location     Type
   284 ;;		None
   285 ;; Return value:  Size  Location     Type
   286 ;;                  2  192[None  ] int 
   287 ;; Registers used:
   288 ;;		wreg, fsr2l, fsr2h, status,2, status,0, prodl, prodh, cstack
   289 ;; Tracked objects:
   290 ;;		On entry : 0/0
   291 ;;		On exit  : 0/0
   292 ;;		Unchanged: 0/0
   293 ;; Data sizes:     COMRAM   BANK0   BANK1   BANK2   BANK3   BANK4   BANK5   BANK6   BANK7   BANK8   BANK9  BANK10  BANK1
      +1  BANK12  BANK13  BANK14  BANK15
   294 ;;      Params:         0       0       0       0       0       0       0       0       0       0       0       0       
      +0       0       0       0       0
   295 ;;      Locals:         0       0       0       0       0       0       0       0       0       0       0       0       
      +0       0       0       0       0
   296 ;;      Temps:          2       0       0       0       0       0       0       0       0       0       0       0       
      +0       0       0       0       0
   297 ;;      Totals:         2       0       0       0       0       0       0       0       0       0       0       0       
      +0       0       0       0       0
   298 ;;Total ram usage:        2 bytes
   299 ;; Hardware stack levels required when called: 3
   300 ;; This function calls:
   301 ;;		_Application_initialize
   302 ;;		_relay_turn_off
   303 ;;		_relay_turn_on
   304 ;; This function is called by:
   305 ;;		Startup code after reset
   306 ;; This function uses a non-reentrant model
   307 ;;
   308                           
   309                           	psect	text0
   310   00FB52                     __ptext0:
   311                           	callstack 0
   312   00FB52                     _main:
   313                           	callstack 28
   314   00FB52                     
   315                           ;Application.c: 25:     Application_initialize();
   316   00FB52  EC6E  F07D         	call	_Application_initialize	;wreg free
   317   00FB56                     l193:
   318                           
   319                           ;Application.c: 27:         ret = relay_turn_on(&relay1);
   320   00FB56  0E21               	movlw	low _relay1
   321   00FB58  6E2B               	movwf	relay_turn_on@relay^0,c
   322   00FB5A  0E00               	movlw	high _relay1
   323   00FB5C  6E2C               	movwf	(relay_turn_on@relay+1)^0,c
   324   00FB5E  EC23  F07E         	call	_relay_turn_on	;wreg free
   325   00FB62  6E1F               	movwf	_ret^0,c
   326   00FB64                     
   327                           ;Application.c: 28:         _delay(5000000);
   328   00FB64  0E1A               	movlw	26
   329   00FB66  6E31               	movwf	(??_main+1)^0,c
   330   00FB68  0E5E               	movlw	94
   331   00FB6A  6E30               	movwf	??_main^0,c
   332   00FB6C  0E6E               	movlw	110
   333   00FB6E                     u777:
   334   00FB6E  2EE8               	decfsz	wreg,f,c
   335   00FB70  D7FE               	bra	u777
   336   00FB72  2E30               	decfsz	??_main^0,f,c
   337   00FB74  D7FC               	bra	u777
   338   00FB76  2E31               	decfsz	(??_main+1)^0,f,c
   339   00FB78  D7FA               	bra	u777
   340   00FB7A  D000               	nop2	
   341   00FB7C                     
   342                           ;Application.c: 29:         ret = relay_turn_off(&relay1);
   343   00FB7C  0E21               	movlw	low _relay1
   344   00FB7E  6E2B               	movwf	relay_turn_off@relay^0,c
   345   00FB80  0E00               	movlw	high _relay1
   346   00FB82  6E2C               	movwf	(relay_turn_off@relay+1)^0,c
   347   00FB84  ECE3  F07D         	call	_relay_turn_off	;wreg free
   348   00FB88  6E1F               	movwf	_ret^0,c
   349   00FB8A                     
   350                           ;Application.c: 30:         ret = relay_turn_on(&relay2);
   351   00FB8A  0E20               	movlw	low _relay2
   352   00FB8C  6E2B               	movwf	relay_turn_on@relay^0,c
   353   00FB8E  0E00               	movlw	high _relay2
   354   00FB90  6E2C               	movwf	(relay_turn_on@relay+1)^0,c
   355   00FB92  EC23  F07E         	call	_relay_turn_on	;wreg free
   356   00FB96  6E1F               	movwf	_ret^0,c
   357   00FB98                     
   358                           ;Application.c: 31:         _delay(5000000);
   359   00FB98  0E1A               	movlw	26
   360   00FB9A  6E31               	movwf	(??_main+1)^0,c
   361   00FB9C  0E5E               	movlw	94
   362   00FB9E  6E30               	movwf	??_main^0,c
   363   00FBA0  0E6E               	movlw	110
   364   00FBA2                     u787:
   365   00FBA2  2EE8               	decfsz	wreg,f,c
   366   00FBA4  D7FE               	bra	u787
   367   00FBA6  2E30               	decfsz	??_main^0,f,c
   368   00FBA8  D7FC               	bra	u787
   369   00FBAA  2E31               	decfsz	(??_main+1)^0,f,c
   370   00FBAC  D7FA               	bra	u787
   371   00FBAE  D000               	nop2	
   372                           
   373                           ;Application.c: 32:         ret = relay_turn_off(&relay2);
   374   00FBB0  0E20               	movlw	low _relay2
   375   00FBB2  6E2B               	movwf	relay_turn_off@relay^0,c
   376   00FBB4  0E00               	movlw	high _relay2
   377   00FBB6  6E2C               	movwf	(relay_turn_off@relay+1)^0,c
   378   00FBB8  ECE3  F07D         	call	_relay_turn_off	;wreg free
   379   00FBBC  6E1F               	movwf	_ret^0,c
   380   00FBBE  EFAB  F07D         	goto	l193
   381   00FBC2  EF00  F000         	goto	start
   382   00FBC6                     __end_of_main:
   383                           	callstack 0
   384                           
   385 ;; *************** function _relay_turn_on *****************
   386 ;; Defined at:
   387 ;;		line 55 in file "ECU_Layer/RELAY/ecu_relay.c"
   388 ;; Parameters:    Size  Location     Type
   389 ;;  relay           2    9[COMRAM] PTR const struct .
   390 ;;		 -> relay2(1), relay1(1), 
   391 ;; Auto vars:     Size  Location     Type
   392 ;;  relayy          1   13[COMRAM] struct .
   393 ;;  ret             1   12[COMRAM] unsigned char 
   394 ;; Return value:  Size  Location     Type
   395 ;;                  1    wreg      unsigned char 
   396 ;; Registers used:
   397 ;;		wreg, fsr2l, fsr2h, status,2, status,0, prodl, prodh, cstack
   398 ;; Tracked objects:
   399 ;;		On entry : 0/0
   400 ;;		On exit  : 0/0
   401 ;;		Unchanged: 0/0
   402 ;; Data sizes:     COMRAM   BANK0   BANK1   BANK2   BANK3   BANK4   BANK5   BANK6   BANK7   BANK8   BANK9  BANK10  BANK1
      +1  BANK12  BANK13  BANK14  BANK15
   403 ;;      Params:         2       0       0       0       0       0       0       0       0       0       0       0       
      +0       0       0       0       0
   404 ;;      Locals:         2       0       0       0       0       0       0       0       0       0       0       0       
      +0       0       0       0       0
   405 ;;      Temps:          1       0       0       0       0       0       0       0       0       0       0       0       
      +0       0       0       0       0
   406 ;;      Totals:         5       0       0       0       0       0       0       0       0       0       0       0       
      +0       0       0       0       0
   407 ;;Total ram usage:        5 bytes
   408 ;; Hardware stack levels used: 1
   409 ;; Hardware stack levels required when called: 1
   410 ;; This function calls:
   411 ;;		_gpio_pin_write_logic
   412 ;; This function is called by:
   413 ;;		_main
   414 ;; This function uses a non-reentrant model
   415 ;;
   416                           
   417                           	psect	text1
   418   00FC46                     __ptext1:
   419                           	callstack 0
   420   00FC46                     _relay_turn_on:
   421                           	callstack 29
   422   00FC46                     
   423                           ;ECU_Layer/RELAY/ecu_relay.c: 56:     STD_ReturnType ret = (STD_ReturnType)0x01;
   424   00FC46  0E01               	movlw	1
   425   00FC48  6E2E               	movwf	relay_turn_on@ret^0,c
   426   00FC4A                     
   427                           ;ECU_Layer/RELAY/ecu_relay.c: 57:     if(relay == ((void*)0)) ret = (STD_ReturnType)0x00
      +                          ;
   428   00FC4A  502B               	movf	relay_turn_on@relay^0,w,c
   429   00FC4C  102C               	iorwf	(relay_turn_on@relay+1)^0,w,c
   430   00FC4E  A4D8               	btfss	status,2,c
   431   00FC50  EF2C  F07E         	goto	u661
   432   00FC54  EF2E  F07E         	goto	u660
   433   00FC58                     u661:
   434   00FC58  EF32  F07E         	goto	l213
   435   00FC5C                     u660:
   436   00FC5C  0E00               	movlw	0
   437   00FC5E  6E2E               	movwf	relay_turn_on@ret^0,c
   438   00FC60  EF61  F07E         	goto	l1314
   439   00FC64                     l213:
   440                           
   441                           ;ECU_Layer/RELAY/ecu_relay.c: 59:         pin_config_t relayy = {
   442   00FC64  C033  F02F         	movff	relay_turn_on@F2875,relay_turn_on@relayy
   443   00FC68  C02B  FFD9         	movff	relay_turn_on@relay,fsr2l
   444   00FC6C  C02C  FFDA         	movff	relay_turn_on@relay+1,fsr2h
   445   00FC70  50DF               	movf	223,w,c
   446   00FC72  0B0F               	andlw	15
   447   00FC74  6E2D               	movwf	??_relay_turn_on^0,c
   448   00FC76  502F               	movf	relay_turn_on@relayy^0,w,c
   449   00FC78  182D               	xorwf	??_relay_turn_on^0,w,c
   450   00FC7A  0BF8               	andlw	-8
   451   00FC7C  182D               	xorwf	??_relay_turn_on^0,w,c
   452   00FC7E  6E2F               	movwf	relay_turn_on@relayy^0,c
   453   00FC80  C02B  FFD9         	movff	relay_turn_on@relay,fsr2l
   454   00FC84  C02C  FFDA         	movff	relay_turn_on@relay+1,fsr2h
   455   00FC88  38DF               	swapf	223,w,c
   456   00FC8A  0B07               	andlw	7
   457   00FC8C  6E2D               	movwf	??_relay_turn_on^0,c
   458   00FC8E  462D               	rlncf	??_relay_turn_on^0,f,c
   459   00FC90  462D               	rlncf	??_relay_turn_on^0,f,c
   460   00FC92  462D               	rlncf	??_relay_turn_on^0,f,c
   461   00FC94  502F               	movf	relay_turn_on@relayy^0,w,c
   462   00FC96  182D               	xorwf	??_relay_turn_on^0,w,c
   463   00FC98  0BC7               	andlw	-57
   464   00FC9A  182D               	xorwf	??_relay_turn_on^0,w,c
   465   00FC9C  6E2F               	movwf	relay_turn_on@relayy^0,c
   466   00FC9E  9C2F               	bcf	relay_turn_on@relayy^0,6,c
   467   00FCA0  C02B  FFD9         	movff	relay_turn_on@relay,fsr2l
   468   00FCA4  C02C  FFDA         	movff	relay_turn_on@relay+1,fsr2h
   469   00FCA8  AEDF               	btfss	indf2,7,c
   470   00FCAA  D002               	bra	u675
   471   00FCAC  8E2F               	bsf	relay_turn_on@relayy^0,7,c
   472   00FCAE  D001               	bra	u677
   473   00FCB0                     u675:
   474   00FCB0  9E2F               	bcf	relay_turn_on@relayy^0,7,c
   475   00FCB2                     u677:
   476   00FCB2                     
   477                           ;ECU_Layer/RELAY/ecu_relay.c: 65:         gpio_pin_write_logic(&relayy, GPIO_HIGH);
   478   00FCB2  0E2F               	movlw	low relay_turn_on@relayy
   479   00FCB4  6E22               	movwf	gpio_pin_write_logic@_pin_config_t^0,c
   480   00FCB6  0E00               	movlw	high relay_turn_on@relayy
   481   00FCB8  6E23               	movwf	(gpio_pin_write_logic@_pin_config_t+1)^0,c
   482   00FCBA  0E01               	movlw	1
   483   00FCBC  6E24               	movwf	gpio_pin_write_logic@logic^0,c
   484   00FCBE  ECAF  F07E         	call	_gpio_pin_write_logic	;wreg free
   485   00FCC2                     l1314:
   486                           
   487                           ;ECU_Layer/RELAY/ecu_relay.c: 67:     return ret;
   488   00FCC2  502E               	movf	relay_turn_on@ret^0,w,c
   489   00FCC4  0012               	return		;funcret
   490   00FCC6                     __end_of_relay_turn_on:
   491                           	callstack 0
   492                           
   493 ;; *************** function _relay_turn_off *****************
   494 ;; Defined at:
   495 ;;		line 78 in file "ECU_Layer/RELAY/ecu_relay.c"
   496 ;; Parameters:    Size  Location     Type
   497 ;;  relay           2    9[COMRAM] PTR const struct .
   498 ;;		 -> relay2(1), relay1(1), 
   499 ;; Auto vars:     Size  Location     Type
   500 ;;  relayy          1   13[COMRAM] struct .
   501 ;;  ret             1   12[COMRAM] unsigned char 
   502 ;; Return value:  Size  Location     Type
   503 ;;                  1    wreg      unsigned char 
   504 ;; Registers used:
   505 ;;		wreg, fsr2l, fsr2h, status,2, status,0, prodl, prodh, cstack
   506 ;; Tracked objects:
   507 ;;		On entry : 0/0
   508 ;;		On exit  : 0/0
   509 ;;		Unchanged: 0/0
   510 ;; Data sizes:     COMRAM   BANK0   BANK1   BANK2   BANK3   BANK4   BANK5   BANK6   BANK7   BANK8   BANK9  BANK10  BANK1
      +1  BANK12  BANK13  BANK14  BANK15
   511 ;;      Params:         2       0       0       0       0       0       0       0       0       0       0       0       
      +0       0       0       0       0
   512 ;;      Locals:         2       0       0       0       0       0       0       0       0       0       0       0       
      +0       0       0       0       0
   513 ;;      Temps:          1       0       0       0       0       0       0       0       0       0       0       0       
      +0       0       0       0       0
   514 ;;      Totals:         5       0       0       0       0       0       0       0       0       0       0       0       
      +0       0       0       0       0
   515 ;;Total ram usage:        5 bytes
   516 ;; Hardware stack levels used: 1
   517 ;; Hardware stack levels required when called: 1
   518 ;; This function calls:
   519 ;;		_gpio_pin_write_logic
   520 ;; This function is called by:
   521 ;;		_main
   522 ;; This function uses a non-reentrant model
   523 ;;
   524                           
   525                           	psect	text2
   526   00FBC6                     __ptext2:
   527                           	callstack 0
   528   00FBC6                     _relay_turn_off:
   529                           	callstack 29
   530   00FBC6                     
   531                           ;ECU_Layer/RELAY/ecu_relay.c: 79:     STD_ReturnType ret = (STD_ReturnType)0x01;
   532   00FBC6  0E01               	movlw	1
   533   00FBC8  6E2E               	movwf	relay_turn_off@ret^0,c
   534   00FBCA                     
   535                           ;ECU_Layer/RELAY/ecu_relay.c: 80:     if(relay == ((void*)0)) ret = (STD_ReturnType)0x00
      +                          ;
   536   00FBCA  502B               	movf	relay_turn_off@relay^0,w,c
   537   00FBCC  102C               	iorwf	(relay_turn_off@relay+1)^0,w,c
   538   00FBCE  A4D8               	btfss	status,2,c
   539   00FBD0  EFEC  F07D         	goto	u681
   540   00FBD4  EFEE  F07D         	goto	u680
   541   00FBD8                     u681:
   542   00FBD8  EFF2  F07D         	goto	l220
   543   00FBDC                     u680:
   544   00FBDC  0E00               	movlw	0
   545   00FBDE  6E2E               	movwf	relay_turn_off@ret^0,c
   546   00FBE0  EF21  F07E         	goto	l1332
   547   00FBE4                     l220:
   548                           
   549                           ;ECU_Layer/RELAY/ecu_relay.c: 82:         pin_config_t relayy = {
   550   00FBE4  C032  F02F         	movff	relay_turn_off@F2880,relay_turn_off@relayy
   551   00FBE8  C02B  FFD9         	movff	relay_turn_off@relay,fsr2l
   552   00FBEC  C02C  FFDA         	movff	relay_turn_off@relay+1,fsr2h
   553   00FBF0  50DF               	movf	223,w,c
   554   00FBF2  0B0F               	andlw	15
   555   00FBF4  6E2D               	movwf	??_relay_turn_off^0,c
   556   00FBF6  502F               	movf	relay_turn_off@relayy^0,w,c
   557   00FBF8  182D               	xorwf	??_relay_turn_off^0,w,c
   558   00FBFA  0BF8               	andlw	-8
   559   00FBFC  182D               	xorwf	??_relay_turn_off^0,w,c
   560   00FBFE  6E2F               	movwf	relay_turn_off@relayy^0,c
   561   00FC00  C02B  FFD9         	movff	relay_turn_off@relay,fsr2l
   562   00FC04  C02C  FFDA         	movff	relay_turn_off@relay+1,fsr2h
   563   00FC08  38DF               	swapf	223,w,c
   564   00FC0A  0B07               	andlw	7
   565   00FC0C  6E2D               	movwf	??_relay_turn_off^0,c
   566   00FC0E  462D               	rlncf	??_relay_turn_off^0,f,c
   567   00FC10  462D               	rlncf	??_relay_turn_off^0,f,c
   568   00FC12  462D               	rlncf	??_relay_turn_off^0,f,c
   569   00FC14  502F               	movf	relay_turn_off@relayy^0,w,c
   570   00FC16  182D               	xorwf	??_relay_turn_off^0,w,c
   571   00FC18  0BC7               	andlw	-57
   572   00FC1A  182D               	xorwf	??_relay_turn_off^0,w,c
   573   00FC1C  6E2F               	movwf	relay_turn_off@relayy^0,c
   574   00FC1E  9C2F               	bcf	relay_turn_off@relayy^0,6,c
   575   00FC20  C02B  FFD9         	movff	relay_turn_off@relay,fsr2l
   576   00FC24  C02C  FFDA         	movff	relay_turn_off@relay+1,fsr2h
   577   00FC28  AEDF               	btfss	indf2,7,c
   578   00FC2A  D002               	bra	u695
   579   00FC2C  8E2F               	bsf	relay_turn_off@relayy^0,7,c
   580   00FC2E  D001               	bra	u697
   581   00FC30                     u695:
   582   00FC30  9E2F               	bcf	relay_turn_off@relayy^0,7,c
   583   00FC32                     u697:
   584   00FC32                     
   585                           ;ECU_Layer/RELAY/ecu_relay.c: 88:         gpio_pin_write_logic(&relayy, GPIO_LOW);
   586   00FC32  0E2F               	movlw	low relay_turn_off@relayy
   587   00FC34  6E22               	movwf	gpio_pin_write_logic@_pin_config_t^0,c
   588   00FC36  0E00               	movlw	high relay_turn_off@relayy
   589   00FC38  6E23               	movwf	(gpio_pin_write_logic@_pin_config_t+1)^0,c
   590   00FC3A  0E00               	movlw	0
   591   00FC3C  6E24               	movwf	gpio_pin_write_logic@logic^0,c
   592   00FC3E  ECAF  F07E         	call	_gpio_pin_write_logic	;wreg free
   593   00FC42                     l1332:
   594                           
   595                           ;ECU_Layer/RELAY/ecu_relay.c: 90:     return ret;
   596   00FC42  502E               	movf	relay_turn_off@ret^0,w,c
   597   00FC44  0012               	return		;funcret
   598   00FC46                     __end_of_relay_turn_off:
   599                           	callstack 0
   600                           
   601 ;; *************** function _Application_initialize *****************
   602 ;; Defined at:
   603 ;;		line 38 in file "Application.c"
   604 ;; Parameters:    Size  Location     Type
   605 ;;		None
   606 ;; Auto vars:     Size  Location     Type
   607 ;;		None
   608 ;; Return value:  Size  Location     Type
   609 ;;                  1    wreg      void 
   610 ;; Registers used:
   611 ;;		wreg, fsr2l, fsr2h, status,2, status,0, prodl, prodh, cstack
   612 ;; Tracked objects:
   613 ;;		On entry : 0/0
   614 ;;		On exit  : 0/0
   615 ;;		Unchanged: 0/0
   616 ;; Data sizes:     COMRAM   BANK0   BANK1   BANK2   BANK3   BANK4   BANK5   BANK6   BANK7   BANK8   BANK9  BANK10  BANK1
      +1  BANK12  BANK13  BANK14  BANK15
   617 ;;      Params:         0       0       0       0       0       0       0       0       0       0       0       0       
      +0       0       0       0       0
   618 ;;      Locals:         0       0       0       0       0       0       0       0       0       0       0       0       
      +0       0       0       0       0
   619 ;;      Temps:          0       0       0       0       0       0       0       0       0       0       0       0       
      +0       0       0       0       0
   620 ;;      Totals:         0       0       0       0       0       0       0       0       0       0       0       0       
      +0       0       0       0       0
   621 ;;Total ram usage:        0 bytes
   622 ;; Hardware stack levels used: 1
   623 ;; Hardware stack levels required when called: 2
   624 ;; This function calls:
   625 ;;		_relay_initialize
   626 ;; This function is called by:
   627 ;;		_main
   628 ;; This function uses a non-reentrant model
   629 ;;
   630                           
   631                           	psect	text3
   632   00FADC                     __ptext3:
   633                           	callstack 0
   634   00FADC                     _Application_initialize:
   635                           	callstack 28
   636   00FADC                     
   637                           ;Application.c: 39:     ret = relay_initialize(&relay1);
   638   00FADC  0E21               	movlw	low _relay1
   639   00FADE  6E2B               	movwf	relay_initialize@relay^0,c
   640   00FAE0  0E00               	movlw	high _relay1
   641   00FAE2  6E2C               	movwf	(relay_initialize@relay+1)^0,c
   642   00FAE4  EC63  F07E         	call	_relay_initialize	;wreg free
   643   00FAE8  6E1F               	movwf	_ret^0,c
   644                           
   645                           ;Application.c: 40:     ret = relay_initialize(&relay2);
   646   00FAEA  0E20               	movlw	low _relay2
   647   00FAEC  6E2B               	movwf	relay_initialize@relay^0,c
   648   00FAEE  0E00               	movlw	high _relay2
   649   00FAF0  6E2C               	movwf	(relay_initialize@relay+1)^0,c
   650   00FAF2  EC63  F07E         	call	_relay_initialize	;wreg free
   651   00FAF6  6E1F               	movwf	_ret^0,c
   652   00FAF8  0012               	return		;funcret
   653   00FAFA                     __end_of_Application_initialize:
   654                           	callstack 0
   655                           
   656 ;; *************** function _relay_initialize *****************
   657 ;; Defined at:
   658 ;;		line 32 in file "ECU_Layer/RELAY/ecu_relay.c"
   659 ;; Parameters:    Size  Location     Type
   660 ;;  relay           2    9[COMRAM] PTR const struct .
   661 ;;		 -> relay2(1), relay1(1), 
   662 ;; Auto vars:     Size  Location     Type
   663 ;;  relayy          1   13[COMRAM] struct .
   664 ;;  ret             1   12[COMRAM] unsigned char 
   665 ;; Return value:  Size  Location     Type
   666 ;;                  1    wreg      unsigned char 
   667 ;; Registers used:
   668 ;;		wreg, fsr2l, fsr2h, status,2, status,0, prodl, prodh, cstack
   669 ;; Tracked objects:
   670 ;;		On entry : 0/0
   671 ;;		On exit  : 0/0
   672 ;;		Unchanged: 0/0
   673 ;; Data sizes:     COMRAM   BANK0   BANK1   BANK2   BANK3   BANK4   BANK5   BANK6   BANK7   BANK8   BANK9  BANK10  BANK1
      +1  BANK12  BANK13  BANK14  BANK15
   674 ;;      Params:         2       0       0       0       0       0       0       0       0       0       0       0       
      +0       0       0       0       0
   675 ;;      Locals:         2       0       0       0       0       0       0       0       0       0       0       0       
      +0       0       0       0       0
   676 ;;      Temps:          1       0       0       0       0       0       0       0       0       0       0       0       
      +0       0       0       0       0
   677 ;;      Totals:         5       0       0       0       0       0       0       0       0       0       0       0       
      +0       0       0       0       0
   678 ;;Total ram usage:        5 bytes
   679 ;; Hardware stack levels used: 1
   680 ;; Hardware stack levels required when called: 1
   681 ;; This function calls:
   682 ;;		_gpio_pin_direction_init
   683 ;;		_gpio_pin_write_logic
   684 ;; This function is called by:
   685 ;;		_Application_initialize
   686 ;; This function uses a non-reentrant model
   687 ;;
   688                           
   689                           	psect	text4
   690   00FCC6                     __ptext4:
   691                           	callstack 0
   692   00FCC6                     _relay_initialize:
   693                           	callstack 28
   694   00FCC6                     
   695                           ;ECU_Layer/RELAY/ecu_relay.c: 33:     STD_ReturnType ret = (STD_ReturnType)0x01;
   696   00FCC6  0E01               	movlw	1
   697   00FCC8  6E2E               	movwf	relay_initialize@ret^0,c
   698   00FCCA                     
   699                           ;ECU_Layer/RELAY/ecu_relay.c: 34:     if(relay == ((void*)0)) ret = (STD_ReturnType)0x00
      +                          ;
   700   00FCCA  502B               	movf	relay_initialize@relay^0,w,c
   701   00FCCC  102C               	iorwf	(relay_initialize@relay+1)^0,w,c
   702   00FCCE  A4D8               	btfss	status,2,c
   703   00FCD0  EF6C  F07E         	goto	u641
   704   00FCD4  EF6E  F07E         	goto	u640
   705   00FCD8                     u641:
   706   00FCD8  EF72  F07E         	goto	l206
   707   00FCDC                     u640:
   708   00FCDC  0E00               	movlw	0
   709   00FCDE  6E2E               	movwf	relay_initialize@ret^0,c
   710   00FCE0  EFAD  F07E         	goto	l1294
   711   00FCE4                     l206:
   712                           
   713                           ;ECU_Layer/RELAY/ecu_relay.c: 36:         pin_config_t relayy = {
   714   00FCE4  C034  F02F         	movff	relay_initialize@F2870,relay_initialize@relayy
   715   00FCE8  C02B  FFD9         	movff	relay_initialize@relay,fsr2l
   716   00FCEC  C02C  FFDA         	movff	relay_initialize@relay+1,fsr2h
   717   00FCF0  50DF               	movf	223,w,c
   718   00FCF2  0B0F               	andlw	15
   719   00FCF4  6E2D               	movwf	??_relay_initialize^0,c
   720   00FCF6  502F               	movf	relay_initialize@relayy^0,w,c
   721   00FCF8  182D               	xorwf	??_relay_initialize^0,w,c
   722   00FCFA  0BF8               	andlw	-8
   723   00FCFC  182D               	xorwf	??_relay_initialize^0,w,c
   724   00FCFE  6E2F               	movwf	relay_initialize@relayy^0,c
   725   00FD00  C02B  FFD9         	movff	relay_initialize@relay,fsr2l
   726   00FD04  C02C  FFDA         	movff	relay_initialize@relay+1,fsr2h
   727   00FD08  38DF               	swapf	223,w,c
   728   00FD0A  0B07               	andlw	7
   729   00FD0C  6E2D               	movwf	??_relay_initialize^0,c
   730   00FD0E  462D               	rlncf	??_relay_initialize^0,f,c
   731   00FD10  462D               	rlncf	??_relay_initialize^0,f,c
   732   00FD12  462D               	rlncf	??_relay_initialize^0,f,c
   733   00FD14  502F               	movf	relay_initialize@relayy^0,w,c
   734   00FD16  182D               	xorwf	??_relay_initialize^0,w,c
   735   00FD18  0BC7               	andlw	-57
   736   00FD1A  182D               	xorwf	??_relay_initialize^0,w,c
   737   00FD1C  6E2F               	movwf	relay_initialize@relayy^0,c
   738   00FD1E  9C2F               	bcf	relay_initialize@relayy^0,6,c
   739   00FD20  C02B  FFD9         	movff	relay_initialize@relay,fsr2l
   740   00FD24  C02C  FFDA         	movff	relay_initialize@relay+1,fsr2h
   741   00FD28  AEDF               	btfss	indf2,7,c
   742   00FD2A  D002               	bra	u655
   743   00FD2C  8E2F               	bsf	relay_initialize@relayy^0,7,c
   744   00FD2E  D001               	bra	u657
   745   00FD30                     u655:
   746   00FD30  9E2F               	bcf	relay_initialize@relayy^0,7,c
   747   00FD32                     u657:
   748   00FD32                     
   749                           ;ECU_Layer/RELAY/ecu_relay.c: 42:         gpio_pin_direction_init(&relayy);
   750   00FD32  0E2F               	movlw	low relay_initialize@relayy
   751   00FD34  6E22               	movwf	gpio_pin_direction_init@_pin_config_t^0,c
   752   00FD36  0E00               	movlw	high relay_initialize@relayy
   753   00FD38  6E23               	movwf	(gpio_pin_direction_init@_pin_config_t+1)^0,c
   754   00FD3A  EC4F  F07F         	call	_gpio_pin_direction_init	;wreg free
   755   00FD3E                     
   756                           ;ECU_Layer/RELAY/ecu_relay.c: 43:         gpio_pin_write_logic(&relayy, relay->status);
   757   00FD3E  0E2F               	movlw	low relay_initialize@relayy
   758   00FD40  6E22               	movwf	gpio_pin_write_logic@_pin_config_t^0,c
   759   00FD42  0E00               	movlw	high relay_initialize@relayy
   760   00FD44  6E23               	movwf	(gpio_pin_write_logic@_pin_config_t+1)^0,c
   761   00FD46  C02B  FFD9         	movff	relay_initialize@relay,fsr2l
   762   00FD4A  C02C  FFDA         	movff	relay_initialize@relay+1,fsr2h
   763   00FD4E  0E00               	movlw	0
   764   00FD50  BEDF               	btfsc	indf2,7,c
   765   00FD52  0E01               	movlw	1
   766   00FD54  6E24               	movwf	gpio_pin_write_logic@logic^0,c
   767   00FD56  ECAF  F07E         	call	_gpio_pin_write_logic	;wreg free
   768   00FD5A                     l1294:
   769                           
   770                           ;ECU_Layer/RELAY/ecu_relay.c: 45:     return ret;
   771   00FD5A  502E               	movf	relay_initialize@ret^0,w,c
   772   00FD5C  0012               	return		;funcret
   773   00FD5E                     __end_of_relay_initialize:
   774                           	callstack 0
   775                           
   776 ;; *************** function _gpio_pin_write_logic *****************
   777 ;; Defined at:
   778 ;;		line 70 in file "MCAL_Layer/hal_gpio.c"
   779 ;; Parameters:    Size  Location     Type
   780 ;;  _pin_config_    2    0[COMRAM] PTR const struct .
   781 ;;		 -> relay_turn_off@relayy(1), relay_turn_on@relayy(1), relay_initialize@relayy(1), led_turn_off@pin_obj(1), 
   782 ;;		 -> led_turn_on@pin_obj(1), led_initialize@pin_obj(1), 
   783 ;;  logic           1    2[COMRAM] enum E2798
   784 ;; Auto vars:     Size  Location     Type
   785 ;;  ret             1    0        unsigned char 
   786 ;; Return value:  Size  Location     Type
   787 ;;                  1    wreg      unsigned char 
   788 ;; Registers used:
   789 ;;		wreg, fsr2l, fsr2h, status,2, status,0, prodl, prodh
   790 ;; Tracked objects:
   791 ;;		On entry : 0/0
   792 ;;		On exit  : 0/0
   793 ;;		Unchanged: 0/0
   794 ;; Data sizes:     COMRAM   BANK0   BANK1   BANK2   BANK3   BANK4   BANK5   BANK6   BANK7   BANK8   BANK9  BANK10  BANK1
      +1  BANK12  BANK13  BANK14  BANK15
   795 ;;      Params:         3       0       0       0       0       0       0       0       0       0       0       0       
      +0       0       0       0       0
   796 ;;      Locals:         0       0       0       0       0       0       0       0       0       0       0       0       
      +0       0       0       0       0
   797 ;;      Temps:          6       0       0       0       0       0       0       0       0       0       0       0       
      +0       0       0       0       0
   798 ;;      Totals:         9       0       0       0       0       0       0       0       0       0       0       0       
      +0       0       0       0       0
   799 ;;Total ram usage:        9 bytes
   800 ;; Hardware stack levels used: 1
   801 ;; This function calls:
   802 ;;		Nothing
   803 ;; This function is called by:
   804 ;;		_relay_initialize
   805 ;;		_relay_turn_on
   806 ;;		_relay_turn_off
   807 ;;		_led_initialize
   808 ;;		_led_turn_on
   809 ;;		_led_turn_off
   810 ;; This function uses a non-reentrant model
   811 ;;
   812                           
   813                           	psect	text5
   814   00FD5E                     __ptext5:
   815                           	callstack 0
   816   00FD5E                     _gpio_pin_write_logic:
   817                           	callstack 29
   818   00FD5E                     
   819                           ;MCAL_Layer/hal_gpio.c: 72:     if(_pin_config_t == ((void*)0) || (_pin_config_t->port >
      +                           5 - 1) || (_pin_config_t->pin > 8 - 1)) ret = (STD_ReturnType)0x00;
   820   00FD5E  5022               	movf	gpio_pin_write_logic@_pin_config_t^0,w,c
   821   00FD60  1023               	iorwf	(gpio_pin_write_logic@_pin_config_t+1)^0,w,c
   822   00FD62  B4D8               	btfsc	status,2,c
   823   00FD64  EFB6  F07E         	goto	u591
   824   00FD68  EFB8  F07E         	goto	u590
   825   00FD6C                     u591:
   826   00FD6C  EFD8  F07E         	goto	l1264
   827   00FD70                     u590:
   828   00FD70  C022  FFD9         	movff	gpio_pin_write_logic@_pin_config_t,fsr2l
   829   00FD74  C023  FFDA         	movff	gpio_pin_write_logic@_pin_config_t+1,fsr2h
   830   00FD78  50DF               	movf	223,w,c
   831   00FD7A  0B07               	andlw	7
   832   00FD7C  6E25               	movwf	??_gpio_pin_write_logic^0,c
   833   00FD7E  0E05               	movlw	5
   834   00FD80  6025               	cpfslt	??_gpio_pin_write_logic^0,c
   835   00FD82  EFC5  F07E         	goto	u601
   836   00FD86  EFC7  F07E         	goto	u600
   837   00FD8A                     u601:
   838   00FD8A  EFD8  F07E         	goto	l1264
   839   00FD8E                     u600:
   840   00FD8E  C022  FFD9         	movff	gpio_pin_write_logic@_pin_config_t,fsr2l
   841   00FD92  C023  FFDA         	movff	gpio_pin_write_logic@_pin_config_t+1,fsr2h
   842   00FD96  30DF               	rrcf	223,w,c
   843   00FD98  32E8               	rrcf	wreg,f,c
   844   00FD9A  32E8               	rrcf	wreg,f,c
   845   00FD9C  0B07               	andlw	7
   846   00FD9E  6E25               	movwf	??_gpio_pin_write_logic^0,c
   847   00FDA0  0E07               	movlw	7
   848   00FDA2  6425               	cpfsgt	??_gpio_pin_write_logic^0,c
   849   00FDA4  EFD6  F07E         	goto	u611
   850   00FDA8  EFD8  F07E         	goto	u610
   851   00FDAC                     u611:
   852   00FDAC  EF39  F07F         	goto	l1272
   853   00FDB0                     u610:
   854   00FDB0                     l1264:
   855   00FDB0  EF4E  F07F         	goto	l124
   856   00FDB4                     l1266:
   857                           
   858                           ;MCAL_Layer/hal_gpio.c: 76:                 (*lat_register[_pin_config_t->port] &= ~(1 <
      +                          < _pin_config_t->pin));
   859   00FDB4  C022  FFD9         	movff	gpio_pin_write_logic@_pin_config_t,fsr2l
   860   00FDB8  C023  FFDA         	movff	gpio_pin_write_logic@_pin_config_t+1,fsr2h
   861   00FDBC  30DF               	rrcf	223,w,c
   862   00FDBE  32E8               	rrcf	wreg,f,c
   863   00FDC0  32E8               	rrcf	wreg,f,c
   864   00FDC2  0B07               	andlw	7
   865   00FDC4  6E25               	movwf	??_gpio_pin_write_logic^0,c
   866   00FDC6  0E01               	movlw	1
   867   00FDC8  6E26               	movwf	(??_gpio_pin_write_logic+1)^0,c
   868   00FDCA  2A25               	incf	??_gpio_pin_write_logic^0,f,c
   869   00FDCC  EFEA  F07E         	goto	u624
   870   00FDD0                     u625:
   871   00FDD0  90D8               	bcf	status,0,c
   872   00FDD2  3626               	rlcf	(??_gpio_pin_write_logic+1)^0,f,c
   873   00FDD4                     u624:
   874   00FDD4  2E25               	decfsz	??_gpio_pin_write_logic^0,f,c
   875   00FDD6  EFE8  F07E         	goto	u625
   876   00FDDA  5026               	movf	(??_gpio_pin_write_logic+1)^0,w,c
   877   00FDDC  0AFF               	xorlw	255
   878   00FDDE  6E27               	movwf	(??_gpio_pin_write_logic+2)^0,c
   879   00FDE0  C022  FFD9         	movff	gpio_pin_write_logic@_pin_config_t,fsr2l
   880   00FDE4  C023  FFDA         	movff	gpio_pin_write_logic@_pin_config_t+1,fsr2h
   881   00FDE8  50DF               	movf	223,w,c
   882   00FDEA  0B07               	andlw	7
   883   00FDEC  6E28               	movwf	(??_gpio_pin_write_logic+3)^0,c
   884   00FDEE  5028               	movf	(??_gpio_pin_write_logic+3)^0,w,c
   885   00FDF0  0D02               	mullw	2
   886   00FDF2  0E0B               	movlw	low _lat_register
   887   00FDF4  24F3               	addwf	243,w,c
   888   00FDF6  6ED9               	movwf	fsr2l,c
   889   00FDF8  0E00               	movlw	high _lat_register
   890   00FDFA  20F4               	addwfc	prodh,w,c
   891   00FDFC  6EDA               	movwf	fsr2h,c
   892   00FDFE  CFDE F029          	movff	postinc2,??_gpio_pin_write_logic+4
   893   00FE02  CFDD F02A          	movff	postdec2,??_gpio_pin_write_logic+5
   894   00FE06  C029  FFD9         	movff	??_gpio_pin_write_logic+4,fsr2l
   895   00FE0A  C02A  FFDA         	movff	??_gpio_pin_write_logic+5,fsr2h
   896   00FE0E  5027               	movf	(??_gpio_pin_write_logic+2)^0,w,c
   897   00FE10  16DF               	andwf	indf2,f,c
   898                           
   899                           ;MCAL_Layer/hal_gpio.c: 77:                 break;
   900   00FE12  EF4E  F07F         	goto	l124
   901   00FE16                     l1268:
   902                           
   903                           ;MCAL_Layer/hal_gpio.c: 79:                 (*lat_register[_pin_config_t->port] |= (1 <<
      +                           _pin_config_t->pin));
   904   00FE16  C022  FFD9         	movff	gpio_pin_write_logic@_pin_config_t,fsr2l
   905   00FE1A  C023  FFDA         	movff	gpio_pin_write_logic@_pin_config_t+1,fsr2h
   906   00FE1E  30DF               	rrcf	223,w,c
   907   00FE20  32E8               	rrcf	wreg,f,c
   908   00FE22  32E8               	rrcf	wreg,f,c
   909   00FE24  0B07               	andlw	7
   910   00FE26  6E25               	movwf	??_gpio_pin_write_logic^0,c
   911   00FE28  0E01               	movlw	1
   912   00FE2A  6E26               	movwf	(??_gpio_pin_write_logic+1)^0,c
   913   00FE2C  2A25               	incf	??_gpio_pin_write_logic^0,f,c
   914   00FE2E  EF1B  F07F         	goto	u634
   915   00FE32                     u635:
   916   00FE32  90D8               	bcf	status,0,c
   917   00FE34  3626               	rlcf	(??_gpio_pin_write_logic+1)^0,f,c
   918   00FE36                     u634:
   919   00FE36  2E25               	decfsz	??_gpio_pin_write_logic^0,f,c
   920   00FE38  EF19  F07F         	goto	u635
   921   00FE3C  C022  FFD9         	movff	gpio_pin_write_logic@_pin_config_t,fsr2l
   922   00FE40  C023  FFDA         	movff	gpio_pin_write_logic@_pin_config_t+1,fsr2h
   923   00FE44  50DF               	movf	223,w,c
   924   00FE46  0B07               	andlw	7
   925   00FE48  6E27               	movwf	(??_gpio_pin_write_logic+2)^0,c
   926   00FE4A  5027               	movf	(??_gpio_pin_write_logic+2)^0,w,c
   927   00FE4C  0D02               	mullw	2
   928   00FE4E  0E0B               	movlw	low _lat_register
   929   00FE50  24F3               	addwf	243,w,c
   930   00FE52  6ED9               	movwf	fsr2l,c
   931   00FE54  0E00               	movlw	high _lat_register
   932   00FE56  20F4               	addwfc	prodh,w,c
   933   00FE58  6EDA               	movwf	fsr2h,c
   934   00FE5A  CFDE F028          	movff	postinc2,??_gpio_pin_write_logic+3
   935   00FE5E  CFDD F029          	movff	postdec2,??_gpio_pin_write_logic+4
   936   00FE62  C028  FFD9         	movff	??_gpio_pin_write_logic+3,fsr2l
   937   00FE66  C029  FFDA         	movff	??_gpio_pin_write_logic+4,fsr2h
   938   00FE6A  5026               	movf	(??_gpio_pin_write_logic+1)^0,w,c
   939   00FE6C  12DF               	iorwf	indf2,f,c
   940                           
   941                           ;MCAL_Layer/hal_gpio.c: 80:                 break;
   942   00FE6E  EF4E  F07F         	goto	l124
   943   00FE72                     l1272:
   944   00FE72  5024               	movf	gpio_pin_write_logic@logic^0,w,c
   945   00FE74  6E25               	movwf	??_gpio_pin_write_logic^0,c
   946   00FE76  6A26               	clrf	(??_gpio_pin_write_logic+1)^0,c
   947                           
   948                           ; Switch on 2 bytes has been partitioned into a top level switch of size 1, and 1 sub-sw
      +                          itches
   949                           ; Switch size 1, requested type "simple"
   950                           ; Number of cases is 1, Range of values is 0 to 0
   951                           ; switch strategies available:
   952                           ; Name         Instructions Cycles
   953                           ; simple_byte            4     3 (average)
   954                           ;	Chosen strategy is simple_byte
   955   00FE78  5026               	movf	(??_gpio_pin_write_logic+1)^0,w,c
   956   00FE7A  0A00               	xorlw	0	; case 0
   957   00FE7C  B4D8               	btfsc	status,2,c
   958   00FE7E  EF43  F07F         	goto	l1414
   959   00FE82  EFD8  F07E         	goto	l1264
   960   00FE86                     l1414:
   961                           
   962                           ; Switch size 1, requested type "simple"
   963                           ; Number of cases is 2, Range of values is 0 to 1
   964                           ; switch strategies available:
   965                           ; Name         Instructions Cycles
   966                           ; simple_byte            7     4 (average)
   967                           ;	Chosen strategy is simple_byte
   968   00FE86  5025               	movf	??_gpio_pin_write_logic^0,w,c
   969   00FE88  0A00               	xorlw	0	; case 0
   970   00FE8A  B4D8               	btfsc	status,2,c
   971   00FE8C  EFDA  F07E         	goto	l1266
   972   00FE90  0A01               	xorlw	1	; case 1
   973   00FE92  B4D8               	btfsc	status,2,c
   974   00FE94  EF0B  F07F         	goto	l1268
   975   00FE98  EFD8  F07E         	goto	l1264
   976   00FE9C                     l124:
   977   00FE9C  0012               	return		;funcret
   978   00FE9E                     __end_of_gpio_pin_write_logic:
   979                           	callstack 0
   980                           
   981 ;; *************** function _gpio_pin_direction_init *****************
   982 ;; Defined at:
   983 ;;		line 24 in file "MCAL_Layer/hal_gpio.c"
   984 ;; Parameters:    Size  Location     Type
   985 ;;  _pin_config_    2    0[COMRAM] PTR const struct .
   986 ;;		 -> relay_initialize@relayy(1), led_initialize@pin_obj(1), 
   987 ;; Auto vars:     Size  Location     Type
   988 ;;  ret             1    8[COMRAM] unsigned char 
   989 ;; Return value:  Size  Location     Type
   990 ;;                  1    wreg      unsigned char 
   991 ;; Registers used:
   992 ;;		wreg, fsr2l, fsr2h, status,2, status,0, prodl, prodh
   993 ;; Tracked objects:
   994 ;;		On entry : 0/0
   995 ;;		On exit  : 0/0
   996 ;;		Unchanged: 0/0
   997 ;; Data sizes:     COMRAM   BANK0   BANK1   BANK2   BANK3   BANK4   BANK5   BANK6   BANK7   BANK8   BANK9  BANK10  BANK1
      +1  BANK12  BANK13  BANK14  BANK15
   998 ;;      Params:         2       0       0       0       0       0       0       0       0       0       0       0       
      +0       0       0       0       0
   999 ;;      Locals:         1       0       0       0       0       0       0       0       0       0       0       0       
      +0       0       0       0       0
  1000 ;;      Temps:          6       0       0       0       0       0       0       0       0       0       0       0       
      +0       0       0       0       0
  1001 ;;      Totals:         9       0       0       0       0       0       0       0       0       0       0       0       
      +0       0       0       0       0
  1002 ;;Total ram usage:        9 bytes
  1003 ;; Hardware stack levels used: 1
  1004 ;; This function calls:
  1005 ;;		Nothing
  1006 ;; This function is called by:
  1007 ;;		_relay_initialize
  1008 ;;		_button_initialize
  1009 ;;		_led_initialize
  1010 ;; This function uses a non-reentrant model
  1011 ;;
  1012                           
  1013                           	psect	text6
  1014   00FE9E                     __ptext6:
  1015                           	callstack 0
  1016   00FE9E                     _gpio_pin_direction_init:
  1017                           	callstack 28
  1018   00FE9E                     
  1019                           ;MCAL_Layer/hal_gpio.c: 25:     STD_ReturnType ret = (STD_ReturnType)0x01;
  1020   00FE9E  0E01               	movlw	1
  1021   00FEA0  6E2A               	movwf	gpio_pin_direction_init@ret^0,c
  1022   00FEA2                     
  1023                           ;MCAL_Layer/hal_gpio.c: 26:     if(_pin_config_t == ((void*)0) || (_pin_config_t->port >
      +                           (5 - 1)) || (_pin_config_t->pin > (8 - 1))) ret = (STD_ReturnType)0x00;
  1024   00FEA2  5022               	movf	gpio_pin_direction_init@_pin_config_t^0,w,c
  1025   00FEA4  1023               	iorwf	(gpio_pin_direction_init@_pin_config_t+1)^0,w,c
  1026   00FEA6  B4D8               	btfsc	status,2,c
  1027   00FEA8  EF58  F07F         	goto	u521
  1028   00FEAC  EF5A  F07F         	goto	u520
  1029   00FEB0                     u521:
  1030   00FEB0  EF7A  F07F         	goto	l1238
  1031   00FEB4                     u520:
  1032   00FEB4  C022  FFD9         	movff	gpio_pin_direction_init@_pin_config_t,fsr2l
  1033   00FEB8  C023  FFDA         	movff	gpio_pin_direction_init@_pin_config_t+1,fsr2h
  1034   00FEBC  50DF               	movf	223,w,c
  1035   00FEBE  0B07               	andlw	7
  1036   00FEC0  6E24               	movwf	??_gpio_pin_direction_init^0,c
  1037   00FEC2  0E05               	movlw	5
  1038   00FEC4  6024               	cpfslt	??_gpio_pin_direction_init^0,c
  1039   00FEC6  EF67  F07F         	goto	u531
  1040   00FECA  EF69  F07F         	goto	u530
  1041   00FECE                     u531:
  1042   00FECE  EF7A  F07F         	goto	l1238
  1043   00FED2                     u530:
  1044   00FED2  C022  FFD9         	movff	gpio_pin_direction_init@_pin_config_t,fsr2l
  1045   00FED6  C023  FFDA         	movff	gpio_pin_direction_init@_pin_config_t+1,fsr2h
  1046   00FEDA  30DF               	rrcf	223,w,c
  1047   00FEDC  32E8               	rrcf	wreg,f,c
  1048   00FEDE  32E8               	rrcf	wreg,f,c
  1049   00FEE0  0B07               	andlw	7
  1050   00FEE2  6E24               	movwf	??_gpio_pin_direction_init^0,c
  1051   00FEE4  0E07               	movlw	7
  1052   00FEE6  6424               	cpfsgt	??_gpio_pin_direction_init^0,c
  1053   00FEE8  EF78  F07F         	goto	u541
  1054   00FEEC  EF7A  F07F         	goto	u540
  1055   00FEF0                     u541:
  1056   00FEF0  EFDD  F07F         	goto	l1246
  1057   00FEF4                     u540:
  1058   00FEF4                     l1238:
  1059   00FEF4  0E00               	movlw	0
  1060   00FEF6  6E2A               	movwf	gpio_pin_direction_init@ret^0,c
  1061   00FEF8  EFFE  F07F         	goto	l1248
  1062   00FEFC                     l1240:
  1063                           
  1064                           ;MCAL_Layer/hal_gpio.c: 30:                 (*tris_register[_pin_config_t->port] &= ~(1 
      +                          << _pin_config_t->pin));
  1065   00FEFC  C022  FFD9         	movff	gpio_pin_direction_init@_pin_config_t,fsr2l
  1066   00FF00  C023  FFDA         	movff	gpio_pin_direction_init@_pin_config_t+1,fsr2h
  1067   00FF04  30DF               	rrcf	223,w,c
  1068   00FF06  32E8               	rrcf	wreg,f,c
  1069   00FF08  32E8               	rrcf	wreg,f,c
  1070   00FF0A  0B07               	andlw	7
  1071   00FF0C  6E24               	movwf	??_gpio_pin_direction_init^0,c
  1072   00FF0E  0E01               	movlw	1
  1073   00FF10  6E25               	movwf	(??_gpio_pin_direction_init+1)^0,c
  1074   00FF12  2A24               	incf	??_gpio_pin_direction_init^0,f,c
  1075   00FF14  EF8E  F07F         	goto	u554
  1076   00FF18                     u555:
  1077   00FF18  90D8               	bcf	status,0,c
  1078   00FF1A  3625               	rlcf	(??_gpio_pin_direction_init+1)^0,f,c
  1079   00FF1C                     u554:
  1080   00FF1C  2E24               	decfsz	??_gpio_pin_direction_init^0,f,c
  1081   00FF1E  EF8C  F07F         	goto	u555
  1082   00FF22  5025               	movf	(??_gpio_pin_direction_init+1)^0,w,c
  1083   00FF24  0AFF               	xorlw	255
  1084   00FF26  6E26               	movwf	(??_gpio_pin_direction_init+2)^0,c
  1085   00FF28  C022  FFD9         	movff	gpio_pin_direction_init@_pin_config_t,fsr2l
  1086   00FF2C  C023  FFDA         	movff	gpio_pin_direction_init@_pin_config_t+1,fsr2h
  1087   00FF30  50DF               	movf	223,w,c
  1088   00FF32  0B07               	andlw	7
  1089   00FF34  6E27               	movwf	(??_gpio_pin_direction_init+3)^0,c
  1090   00FF36  5027               	movf	(??_gpio_pin_direction_init+3)^0,w,c
  1091   00FF38  0D02               	mullw	2
  1092   00FF3A  0E15               	movlw	low _tris_register
  1093   00FF3C  24F3               	addwf	243,w,c
  1094   00FF3E  6ED9               	movwf	fsr2l,c
  1095   00FF40  0E00               	movlw	high _tris_register
  1096   00FF42  20F4               	addwfc	prodh,w,c
  1097   00FF44  6EDA               	movwf	fsr2h,c
  1098   00FF46  CFDE F028          	movff	postinc2,??_gpio_pin_direction_init+4
  1099   00FF4A  CFDD F029          	movff	postdec2,??_gpio_pin_direction_init+5
  1100   00FF4E  C028  FFD9         	movff	??_gpio_pin_direction_init+4,fsr2l
  1101   00FF52  C029  FFDA         	movff	??_gpio_pin_direction_init+5,fsr2h
  1102   00FF56  5026               	movf	(??_gpio_pin_direction_init+2)^0,w,c
  1103   00FF58  16DF               	andwf	indf2,f,c
  1104                           
  1105                           ;MCAL_Layer/hal_gpio.c: 31:                 break;
  1106   00FF5A  EFFE  F07F         	goto	l1248
  1107   00FF5E                     l1242:
  1108                           
  1109                           ;MCAL_Layer/hal_gpio.c: 33:                 (*tris_register[_pin_config_t->port] |= (1 <
      +                          < _pin_config_t->pin));
  1110   00FF5E  C022  FFD9         	movff	gpio_pin_direction_init@_pin_config_t,fsr2l
  1111   00FF62  C023  FFDA         	movff	gpio_pin_direction_init@_pin_config_t+1,fsr2h
  1112   00FF66  30DF               	rrcf	223,w,c
  1113   00FF68  32E8               	rrcf	wreg,f,c
  1114   00FF6A  32E8               	rrcf	wreg,f,c
  1115   00FF6C  0B07               	andlw	7
  1116   00FF6E  6E24               	movwf	??_gpio_pin_direction_init^0,c
  1117   00FF70  0E01               	movlw	1
  1118   00FF72  6E25               	movwf	(??_gpio_pin_direction_init+1)^0,c
  1119   00FF74  2A24               	incf	??_gpio_pin_direction_init^0,f,c
  1120   00FF76  EFBF  F07F         	goto	u564
  1121   00FF7A                     u565:
  1122   00FF7A  90D8               	bcf	status,0,c
  1123   00FF7C  3625               	rlcf	(??_gpio_pin_direction_init+1)^0,f,c
  1124   00FF7E                     u564:
  1125   00FF7E  2E24               	decfsz	??_gpio_pin_direction_init^0,f,c
  1126   00FF80  EFBD  F07F         	goto	u565
  1127   00FF84  C022  FFD9         	movff	gpio_pin_direction_init@_pin_config_t,fsr2l
  1128   00FF88  C023  FFDA         	movff	gpio_pin_direction_init@_pin_config_t+1,fsr2h
  1129   00FF8C  50DF               	movf	223,w,c
  1130   00FF8E  0B07               	andlw	7
  1131   00FF90  6E26               	movwf	(??_gpio_pin_direction_init+2)^0,c
  1132   00FF92  5026               	movf	(??_gpio_pin_direction_init+2)^0,w,c
  1133   00FF94  0D02               	mullw	2
  1134   00FF96  0E15               	movlw	low _tris_register
  1135   00FF98  24F3               	addwf	243,w,c
  1136   00FF9A  6ED9               	movwf	fsr2l,c
  1137   00FF9C  0E00               	movlw	high _tris_register
  1138   00FF9E  20F4               	addwfc	prodh,w,c
  1139   00FFA0  6EDA               	movwf	fsr2h,c
  1140   00FFA2  CFDE F027          	movff	postinc2,??_gpio_pin_direction_init+3
  1141   00FFA6  CFDD F028          	movff	postdec2,??_gpio_pin_direction_init+4
  1142   00FFAA  C027  FFD9         	movff	??_gpio_pin_direction_init+3,fsr2l
  1143   00FFAE  C028  FFDA         	movff	??_gpio_pin_direction_init+4,fsr2h
  1144   00FFB2  5025               	movf	(??_gpio_pin_direction_init+1)^0,w,c
  1145   00FFB4  12DF               	iorwf	indf2,f,c
  1146                           
  1147                           ;MCAL_Layer/hal_gpio.c: 34:                 break;
  1148   00FFB6  EFFE  F07F         	goto	l1248
  1149   00FFBA                     l1246:
  1150   00FFBA  C022  FFD9         	movff	gpio_pin_direction_init@_pin_config_t,fsr2l
  1151   00FFBE  C023  FFDA         	movff	gpio_pin_direction_init@_pin_config_t+1,fsr2h
  1152   00FFC2  BCDF               	btfsc	indf2,6,c
  1153   00FFC4  EFE6  F07F         	goto	u571
  1154   00FFC8  EFE9  F07F         	goto	u570
  1155   00FFCC                     u571:
  1156   00FFCC  0E01               	movlw	1
  1157   00FFCE  EFEA  F07F         	goto	u580
  1158   00FFD2                     u570:
  1159   00FFD2  0E00               	movlw	0
  1160   00FFD4                     u580:
  1161   00FFD4  6E24               	movwf	??_gpio_pin_direction_init^0,c
  1162   00FFD6  6A25               	clrf	(??_gpio_pin_direction_init+1)^0,c
  1163                           
  1164                           ; Switch on 2 bytes has been partitioned into a top level switch of size 1, and 1 sub-sw
      +                          itches
  1165                           ; Switch size 1, requested type "simple"
  1166                           ; Number of cases is 1, Range of values is 0 to 0
  1167                           ; switch strategies available:
  1168                           ; Name         Instructions Cycles
  1169                           ; simple_byte            4     3 (average)
  1170                           ;	Chosen strategy is simple_byte
  1171   00FFD8  5025               	movf	(??_gpio_pin_direction_init+1)^0,w,c
  1172   00FFDA  0A00               	xorlw	0	; case 0
  1173   00FFDC  B4D8               	btfsc	status,2,c
  1174   00FFDE  EFF3  F07F         	goto	l1416
  1175   00FFE2  EF7A  F07F         	goto	l1238
  1176   00FFE6                     l1416:
  1177                           
  1178                           ; Switch size 1, requested type "simple"
  1179                           ; Number of cases is 2, Range of values is 0 to 1
  1180                           ; switch strategies available:
  1181                           ; Name         Instructions Cycles
  1182                           ; simple_byte            7     4 (average)
  1183                           ;	Chosen strategy is simple_byte
  1184   00FFE6  5024               	movf	??_gpio_pin_direction_init^0,w,c
  1185   00FFE8  0A00               	xorlw	0	; case 0
  1186   00FFEA  B4D8               	btfsc	status,2,c
  1187   00FFEC  EF7E  F07F         	goto	l1240
  1188   00FFF0  0A01               	xorlw	1	; case 1
  1189   00FFF2  B4D8               	btfsc	status,2,c
  1190   00FFF4  EFAF  F07F         	goto	l1242
  1191   00FFF8  EF7A  F07F         	goto	l1238
  1192   00FFFC                     l1248:
  1193                           
  1194                           ;MCAL_Layer/hal_gpio.c: 38:     return ret;
  1195   00FFFC  502A               	movf	gpio_pin_direction_init@ret^0,w,c
  1196   00FFFE  0012               	return		;funcret
  1197   010000                     __end_of_gpio_pin_direction_init:
  1198                           	callstack 0
  1199   000000                     
  1200                           	psect	rparam
  1201   000000                     
  1202                           	psect	idloc
  1203                           
  1204                           ;Config register IDLOC0 @ 0x200000
  1205                           ;	unspecified, using default values
  1206   200000                     	org	2097152
  1207   200000  FF                 	db	255
  1208                           
  1209                           ;Config register IDLOC1 @ 0x200001
  1210                           ;	unspecified, using default values
  1211   200001                     	org	2097153
  1212   200001  FF                 	db	255
  1213                           
  1214                           ;Config register IDLOC2 @ 0x200002
  1215                           ;	unspecified, using default values
  1216   200002                     	org	2097154
  1217   200002  FF                 	db	255
  1218                           
  1219                           ;Config register IDLOC3 @ 0x200003
  1220                           ;	unspecified, using default values
  1221   200003                     	org	2097155
  1222   200003  FF                 	db	255
  1223                           
  1224                           ;Config register IDLOC4 @ 0x200004
  1225                           ;	unspecified, using default values
  1226   200004                     	org	2097156
  1227   200004  FF                 	db	255
  1228                           
  1229                           ;Config register IDLOC5 @ 0x200005
  1230                           ;	unspecified, using default values
  1231   200005                     	org	2097157
  1232   200005  FF                 	db	255
  1233                           
  1234                           ;Config register IDLOC6 @ 0x200006
  1235                           ;	unspecified, using default values
  1236   200006                     	org	2097158
  1237   200006  FF                 	db	255
  1238                           
  1239                           ;Config register IDLOC7 @ 0x200007
  1240                           ;	unspecified, using default values
  1241   200007                     	org	2097159
  1242   200007  FF                 	db	255
  1243                           
  1244                           	psect	config
  1245                           
  1246                           ; Padding undefined space
  1247   300000                     	org	3145728
  1248   300000  FF                 	db	255
  1249                           
  1250                           ;Config register CONFIG1H @ 0x300001
  1251                           ;	Oscillator Selection bits
  1252                           ;	OSC = HS, HS oscillator
  1253                           ;	Fail-Safe Clock Monitor Enable bit
  1254                           ;	FCMEN = OFF, Fail-Safe Clock Monitor disabled
  1255                           ;	Internal/External Oscillator Switchover bit
  1256                           ;	IESO = OFF, Oscillator Switchover mode disabled
  1257   300001                     	org	3145729
  1258   300001  02                 	db	2
  1259                           
  1260                           ;Config register CONFIG2L @ 0x300002
  1261                           ;	Power-up Timer Enable bit
  1262                           ;	PWRT = OFF, PWRT disabled
  1263                           ;	Brown-out Reset Enable bits
  1264                           ;	BOREN = OFF, Brown-out Reset disabled in hardware and software
  1265                           ;	Brown Out Reset Voltage bits
  1266                           ;	BORV = 1, 
  1267   300002                     	org	3145730
  1268   300002  09                 	db	9
  1269                           
  1270                           ;Config register CONFIG2H @ 0x300003
  1271                           ;	Watchdog Timer Enable bit
  1272                           ;	WDT = OFF, WDT disabled (control is placed on the SWDTEN bit)
  1273                           ;	Watchdog Timer Postscale Select bits
  1274                           ;	WDTPS = 32768, 1:32768
  1275   300003                     	org	3145731
  1276   300003  1E                 	db	30
  1277                           
  1278                           ; Padding undefined space
  1279   300004                     	org	3145732
  1280   300004  FF                 	db	255
  1281                           
  1282                           ;Config register CONFIG3H @ 0x300005
  1283                           ;	CCP2 MUX bit
  1284                           ;	CCP2MX = PORTC, CCP2 input/output is multiplexed with RC1
  1285                           ;	PORTB A/D Enable bit
  1286                           ;	PBADEN = ON, PORTB<4:0> pins are configured as analog input channels on Reset
  1287                           ;	Low-Power Timer1 Oscillator Enable bit
  1288                           ;	LPT1OSC = OFF, Timer1 configured for higher power operation
  1289                           ;	MCLR Pin Enable bit
  1290                           ;	MCLRE = ON, MCLR pin enabled; RE3 input pin disabled
  1291   300005                     	org	3145733
  1292   300005  83                 	db	131
  1293                           
  1294                           ;Config register CONFIG4L @ 0x300006
  1295                           ;	Stack Full/Underflow Reset Enable bit
  1296                           ;	STVREN = ON, Stack full/underflow will cause Reset
  1297                           ;	Single-Supply ICSP Enable bit
  1298                           ;	LVP = OFF, Single-Supply ICSP disabled
  1299                           ;	Extended Instruction Set Enable bit
  1300                           ;	XINST = OFF, Instruction set extension and Indexed Addressing mode disabled (Legacy mo
      +                          de)
  1301                           ;	Background Debugger Enable bit
  1302                           ;	DEBUG = 0x1, unprogrammed default
  1303   300006                     	org	3145734
  1304   300006  81                 	db	129
  1305                           
  1306                           ; Padding undefined space
  1307   300007                     	org	3145735
  1308   300007  FF                 	db	255
  1309                           
  1310                           ;Config register CONFIG5L @ 0x300008
  1311                           ;	Code Protection bit
  1312                           ;	CP0 = OFF, Block 0 (000800-003FFFh) not code-protected
  1313                           ;	Code Protection bit
  1314                           ;	CP1 = OFF, Block 1 (004000-007FFFh) not code-protected
  1315                           ;	Code Protection bit
  1316                           ;	CP2 = OFF, Block 2 (008000-00BFFFh) not code-protected
  1317                           ;	Code Protection bit
  1318                           ;	CP3 = OFF, Block 3 (00C000-00FFFFh) not code-protected
  1319   300008                     	org	3145736
  1320   300008  0F                 	db	15
  1321                           
  1322                           ;Config register CONFIG5H @ 0x300009
  1323                           ;	Boot Block Code Protection bit
  1324                           ;	CPB = OFF, Boot block (000000-0007FFh) not code-protected
  1325                           ;	Data EEPROM Code Protection bit
  1326                           ;	CPD = OFF, Data EEPROM not code-protected
  1327   300009                     	org	3145737
  1328   300009  C0                 	db	192
  1329                           
  1330                           ;Config register CONFIG6L @ 0x30000A
  1331                           ;	Write Protection bit
  1332                           ;	WRT0 = OFF, Block 0 (000800-003FFFh) not write-protected
  1333                           ;	Write Protection bit
  1334                           ;	WRT1 = OFF, Block 1 (004000-007FFFh) not write-protected
  1335                           ;	Write Protection bit
  1336                           ;	WRT2 = OFF, Block 2 (008000-00BFFFh) not write-protected
  1337                           ;	Write Protection bit
  1338                           ;	WRT3 = OFF, Block 3 (00C000-00FFFFh) not write-protected
  1339   30000A                     	org	3145738
  1340   30000A  0F                 	db	15
  1341                           
  1342                           ;Config register CONFIG6H @ 0x30000B
  1343                           ;	Configuration Register Write Protection bit
  1344                           ;	WRTC = OFF, Configuration registers (300000-3000FFh) not write-protected
  1345                           ;	Boot Block Write Protection bit
  1346                           ;	WRTB = OFF, Boot Block (000000-0007FFh) not write-protected
  1347                           ;	Data EEPROM Write Protection bit
  1348                           ;	WRTD = OFF, Data EEPROM not write-protected
  1349   30000B                     	org	3145739
  1350   30000B  E0                 	db	224
  1351                           
  1352                           ;Config register CONFIG7L @ 0x30000C
  1353                           ;	Table Read Protection bit
  1354                           ;	EBTR0 = OFF, Block 0 (000800-003FFFh) not protected from table reads executed in other
      +                           blocks
  1355                           ;	Table Read Protection bit
  1356                           ;	EBTR1 = OFF, Block 1 (004000-007FFFh) not protected from table reads executed in other
      +                           blocks
  1357                           ;	Table Read Protection bit
  1358                           ;	EBTR2 = OFF, Block 2 (008000-00BFFFh) not protected from table reads executed in other
      +                           blocks
  1359                           ;	Table Read Protection bit
  1360                           ;	EBTR3 = OFF, Block 3 (00C000-00FFFFh) not protected from table reads executed in other
      +                           blocks
  1361   30000C                     	org	3145740
  1362   30000C  0F                 	db	15
  1363                           
  1364                           ;Config register CONFIG7H @ 0x30000D
  1365                           ;	Boot Block Table Read Protection bit
  1366                           ;	EBTRB = OFF, Boot Block (000000-0007FFh) not protected from table reads executed in ot
      +                          her blocks
  1367   30000D                     	org	3145741
  1368   30000D  40                 	db	64
  1369                           tosu	equ	0xFFF
  1370                           tosh	equ	0xFFE
  1371                           tosl	equ	0xFFD
  1372                           stkptr	equ	0xFFC
  1373                           pclatu	equ	0xFFB
  1374                           pclath	equ	0xFFA
  1375                           pcl	equ	0xFF9
  1376                           tblptru	equ	0xFF8
  1377                           tblptrh	equ	0xFF7
  1378                           tblptrl	equ	0xFF6
  1379                           tablat	equ	0xFF5
  1380                           prodh	equ	0xFF4
  1381                           prodl	equ	0xFF3
  1382                           indf0	equ	0xFEF
  1383                           postinc0	equ	0xFEE
  1384                           postdec0	equ	0xFED
  1385                           preinc0	equ	0xFEC
  1386                           plusw0	equ	0xFEB
  1387                           fsr0h	equ	0xFEA
  1388                           fsr0l	equ	0xFE9
  1389                           wreg	equ	0xFE8
  1390                           indf1	equ	0xFE7
  1391                           postinc1	equ	0xFE6
  1392                           postdec1	equ	0xFE5
  1393                           preinc1	equ	0xFE4
  1394                           plusw1	equ	0xFE3
  1395                           fsr1h	equ	0xFE2
  1396                           fsr1l	equ	0xFE1
  1397                           bsr	equ	0xFE0
  1398                           indf2	equ	0xFDF
  1399                           postinc2	equ	0xFDE
  1400                           postdec2	equ	0xFDD
  1401                           preinc2	equ	0xFDC
  1402                           plusw2	equ	0xFDB
  1403                           fsr2h	equ	0xFDA
  1404                           fsr2l	equ	0xFD9
  1405                           status	equ	0xFD8

Data Sizes:
    Strings     0
    Constant    0
    Data        33
    BSS         7
    Persistent  0
    Stack       0

Auto Spaces:
    Space          Size  Autos    Used
    COMRAM          127     16      56
    BANK0           128      0       0
    BANK1           256      0       0
    BANK2           256      0       0
    BANK3           256      0       0
    BANK4           256      0       0
    BANK5           256      0       0
    BANK6           256      0       0
    BANK7           256      0       0
    BANK8           256      0       0
    BANK9           256      0       0
    BANK10          256      0       0
    BANK11          256      0       0
    BANK12          256      0       0
    BANK13          256      0       0
    BANK14          256      0       0
    BANK15          128      0       0

Pointer List with Targets:

    relay_turn_off@relay	PTR const struct . size(2) Largest target is 1
		 -> relay2(COMRAM[1]), relay1(COMRAM[1]), 

    relay_turn_on@relay	PTR const struct . size(2) Largest target is 1
		 -> relay2(COMRAM[1]), relay1(COMRAM[1]), 

    relay_initialize@relay	PTR const struct . size(2) Largest target is 1
		 -> relay2(COMRAM[1]), relay1(COMRAM[1]), 

    gpio_pin_write_logic@_pin_config_t	PTR const struct . size(2) Largest target is 1
		 -> relay_turn_off@relayy(COMRAM[1]), relay_turn_on@relayy(COMRAM[1]), relay_initialize@relayy(COMRAM[1]), led_turn_off@pin_obj(COMRAM[1]), 
		 -> led_turn_on@pin_obj(COMRAM[1]), led_initialize@pin_obj(COMRAM[1]), 

    gpio_pin_direction_init@_pin_config_t	PTR const struct . size(2) Largest target is 1
		 -> relay_initialize@relayy(COMRAM[1]), led_initialize@pin_obj(COMRAM[1]), 

    port_register	PTR volatile unsigned char [5] size(2) Largest target is 1
		 -> PORTE(BITBIGSFRll[1]), PORTD(BITBIGSFRll[1]), PORTC(BITBIGSFRll[1]), PORTB(BITBIGSFRll[1]), 
		 -> PORTA(BITBIGSFRll[1]), 

    lat_register	PTR volatile unsigned char [5] size(2) Largest target is 1
		 -> LATE(BITBIGSFRlh[1]), LATD(BITBIGSFRlh[1]), LATC(BITBIGSFRlh[1]), LATB(BITBIGSFRlh[1]), 
		 -> LATA(BITBIGSFRll[1]), 

    tris_register	PTR volatile unsigned char [5] size(2) Largest target is 1
		 -> TRISE(BITBIGSFRh[1]), TRISD(BITBIGSFRh[1]), TRISC(BITBIGSFRh[1]), TRISB(BITBIGSFRh[1]), 
		 -> TRISA(BITBIGSFRll[1]), 


Critical Paths under _main in COMRAM

    _main->_relay_turn_off
    _main->_relay_turn_on
    _relay_turn_on->_gpio_pin_write_logic
    _relay_turn_off->_gpio_pin_write_logic
    _Application_initialize->_relay_initialize
    _relay_initialize->_gpio_pin_direction_init
    _relay_initialize->_gpio_pin_write_logic

Critical Paths under _main in BANK0

    None.

Critical Paths under _main in BANK1

    None.

Critical Paths under _main in BANK2

    None.

Critical Paths under _main in BANK3

    None.

Critical Paths under _main in BANK4

    None.

Critical Paths under _main in BANK5

    None.

Critical Paths under _main in BANK6

    None.

Critical Paths under _main in BANK7

    None.

Critical Paths under _main in BANK8

    None.

Critical Paths under _main in BANK9

    None.

Critical Paths under _main in BANK10

    None.

Critical Paths under _main in BANK11

    None.

Critical Paths under _main in BANK12

    None.

Critical Paths under _main in BANK13

    None.

Critical Paths under _main in BANK14

    None.

Critical Paths under _main in BANK15

    None.

Call Graph Tables:

 ---------------------------------------------------------------------------------
 (Depth) Function   	        Calls       Base Space   Used Autos Params    Refs
 ---------------------------------------------------------------------------------
 (0) _main                                                 2     2      0    4662
                                             14 COMRAM     2     2      0
             _Application_initialize
                     _relay_turn_off
                      _relay_turn_on
 ---------------------------------------------------------------------------------
 (1) _relay_turn_on                                        5     3      2    1394
                                              9 COMRAM     5     3      2
               _gpio_pin_write_logic
 ---------------------------------------------------------------------------------
 (1) _relay_turn_off                                       5     3      2    1394
                                              9 COMRAM     5     3      2
               _gpio_pin_write_logic
 ---------------------------------------------------------------------------------
 (1) _Application_initialize                               0     0      0    1874
                   _relay_initialize
 ---------------------------------------------------------------------------------
 (2) _relay_initialize                                     5     3      2    1874
                                              9 COMRAM     5     3      2
            _gpio_pin_direction_init
               _gpio_pin_write_logic
 ---------------------------------------------------------------------------------
 (2) _gpio_pin_write_logic                                10     7      3    1097
                                              0 COMRAM     9     6      3
 ---------------------------------------------------------------------------------
 (3) _gpio_pin_direction_init                              9     7      2     429
                                              0 COMRAM     9     7      2
 ---------------------------------------------------------------------------------
 Estimated maximum stack depth 3
 ---------------------------------------------------------------------------------

 Call Graph Graphs:

 _main (ROOT)
   _Application_initialize
     _relay_initialize
       _gpio_pin_direction_init
       _gpio_pin_write_logic
   _relay_turn_off
     _gpio_pin_write_logic
   _relay_turn_on
     _gpio_pin_write_logic

 Address spaces:
Name               Size   Autos  Total    Cost      Usage
BIGRAM             F7F      0       0      40        0.0%
EEDATA             400      0       0       0        0.0%
BITBANK14          100      0       0      32        0.0%
BANK14             100      0       0      33        0.0%
BITBANK13          100      0       0      30        0.0%
BANK13             100      0       0      31        0.0%
BITBANK12          100      0       0      28        0.0%
BANK12             100      0       0      29        0.0%
BITBANK11          100      0       0      26        0.0%
BANK11             100      0       0      27        0.0%
BITBANK10          100      0       0      24        0.0%
BANK10             100      0       0      25        0.0%
BITBANK9           100      0       0      22        0.0%
BANK9              100      0       0      23        0.0%
BITBANK8           100      0       0      20        0.0%
BANK8              100      0       0      21        0.0%
BITBANK7           100      0       0      18        0.0%
BANK7              100      0       0      19        0.0%
BITBANK6           100      0       0      16        0.0%
BANK6              100      0       0      17        0.0%
BITBANK5           100      0       0      14        0.0%
BANK5              100      0       0      15        0.0%
BITBANK4           100      0       0      12        0.0%
BANK4              100      0       0      13        0.0%
BITBANK3           100      0       0      10        0.0%
BANK3              100      0       0      11        0.0%
BITBANK2           100      0       0       8        0.0%
BANK2              100      0       0       9        0.0%
BITBANK1           100      0       0       6        0.0%
BANK1              100      0       0       7        0.0%
BITBANK15           80      0       0      34        0.0%
BANK15              80      0       0      35        0.0%
BITBANK0            80      0       0       4        0.0%
BANK0               80      0       0       5        0.0%
BITCOMRAM           7F      0       0       0        0.0%
COMRAM              7F     10      38       1       44.1%
BITBIGSFRh          69      0       0      36        0.0%
BITBIGSFRlh          4      0       0      37        0.0%
BITBIGSFRll          4      0       0      38        0.0%
BIGSFR               0      0       0     200        0.0%
BITSFR               0      0       0     200        0.0%
SFR                  0      0       0     200        0.0%
STACK                0      0       0       2        0.0%
NULL                 0      0       0       0        0.0%
ABS                  0      0      38      39        0.0%
DATA                 0      0      38       3        0.0%
CODE                 0      0       0       0        0.0%


Microchip Technology PIC18 Macro Assembler V2.40 build 20220703182018 
Symbol Table                                                                                   Mon Sep 19 00:27:38 2022

                 relay_initialize@ret 002E                                   l105 FFFE  
                                 l210 FD5C                                   l124 FE9C  
                                 l220 FBE4                                   l213 FC64  
                                 l206 FCE4                                   l224 FC44  
                                 l217 FCC4                                   l193 FB56  
                                 l199 FAF8                                   u520 FEB4  
                                 u600 FD8E                                   u521 FEB0  
                                 u601 FD8A                                   u530 FED2  
                                 u610 FDB0                                   u531 FECE  
                                 u611 FDAC                                   u540 FEF4  
                                 u541 FEF0                                   u624 FDD4  
                                 u640 FCDC                                   u625 FDD0  
                                 u641 FCD8                                   u570 FFD2  
                                 u554 FF1C                                   u634 FE36  
                                 u571 FFCC                                   u555 FF18  
                                 u635 FE32                                   u580 FFD4  
                                 u564 FF7E                                   u660 FC5C  
                                 u565 FF7A                                   u661 FC58  
                                 u590 FD70                                   u591 FD6C  
                                 u655 FD30                                   u680 FBDC  
                                 u657 FD32                                   u681 FBD8  
                                 u675 FCB0                                   u677 FCB2  
                                 u695 FC30                                   u697 FC32  
                                 u777 FB6E                                   u787 FBA2  
                                 _ret 001F                                   prod 000FF3  
                 led_initialize@F2876 0038                                   wreg 000FE8  
               relay_initialize@F2870 0034                                  l1300 FC46  
                                l1230 FE9E                                  l1310 FCA0  
                                l1302 FC4A                                  l1240 FEFC  
                                l1232 FEA2                                  l1320 FBCA  
                                l1312 FCB2                                  l1304 FC5C  
                                l1400 FB7C                                  l1242 FF5E  
                                l1234 FEB4                                  l1330 FC32  
                                l1322 FBDC                                  l1306 FC68  
                                l1314 FCC2                                  l1402 FB8A  
                                l1236 FED2                                  l1260 FD70  
                                l1324 FBE8                                  l1332 FC42  
                                l1308 FC9E                                  l1404 FB98  
                                l1246 FFBA                                  l1238 FEF4  
                                l1414 FE86                                  l1262 FD8E  
                                l1326 FC1E                                  l1318 FBC6  
                                l1416 FFE6                                  l1248 FFFC  
                                l1272 FE72                                  l1264 FDB0  
                                l1256 FD5E                                  l1280 FCCA  
                                l1328 FC20                                  l1266 FDB4  
                                l1258 FD5E                                  l1290 FD32  
                                l1282 FCDC                                  l1268 FE16  
                                l1292 FD3E                                  l1284 FCE8  
                                l1286 FD1E                                  l1294 FD5A  
                                l1278 FCC6                                  l1288 FD20  
                                l1298 FADC                                  l1396 FB52  
                                l1398 FB64                                  _LATA 000F89  
                                _LATB 000F8A                                  _LATC 000F8B  
                                _LATD 000F8C                                  _LATE 000F8D  
                                _main FB52                                  fsr2h 000FDA  
                                indf2 000FDF                                  fsr1l 000FE1  
               relay_initialize@relay 002B                                  fsr2l 000FD9  
            ?_gpio_pin_direction_init 0022                                  prodl 000FF3  
                                start 0000                          ___param_bank 000000  
                _gpio_pin_write_logic FD5E                                 ?_main 0022  
                 relay_turn_off@F2880 0032                                 _PORTA 000F80  
                               _PORTB 000F81                                 _PORTC 000F82  
                               _PORTD 000F83                                 _PORTE 000F84  
                               _TRISA 000F92                                 _TRISB 000F93  
                               _TRISC 000F94                                 _TRISD 000F95  
                               _TRISE 000F96                relay_initialize@relayy 002F  
                               tablat 000FF5                   relay_turn_off@relay 002B  
                 relay_turn_on@relayy 002F                                 status 000FD8  
                     __initialization FB1C                 __end_of_relay_turn_on FCC6  
                        __end_of_main FBC6                 ?_gpio_pin_write_logic 0022  
                              ??_main 0030                         __activetblptr 000002  
                    led_turn_on@F2881 0037                         _tris_register 0015  
             ?_Application_initialize 0022                                clear_0 FB42  
                              _relay1 0021                                _relay2 0020  
                      _relay_turn_off FBC6                                isa$std 000001  
                        __pdataCOMRAM 0001                                tblptrh 000FF7  
                              tblptrl 000FF6                                tblptru 000FF8  
                relay_turn_off@relayy 002F                     ?_relay_initialize 002B  
                  ??_relay_initialize 002D                            __accesstop 0080  
             __end_of__initialization FB48                         ___rparam_used 000001  
              ??_gpio_pin_write_logic 0025                        __pcstackCOMRAM 0022  
      __end_of_Application_initialize FAFA                __end_of_relay_turn_off FC46  
                   led_turn_off@F2886 0036                       ?_relay_turn_off 002B  
                             __Hparam 0000                               __Lparam 0000  
                             __pcinit FB1C                               __ramtop 1000  
                             __ptext0 FB52                               __ptext1 FC46  
                             __ptext2 FBC6                               __ptext3 FADC  
                             __ptext4 FCC6                               __ptext5 FD5E  
                             __ptext6 FE9E                  end_of_initialization FB48  
                       __Lmediumconst 0000     gpio_pin_write_logic@_pin_config_t 0022  
                             postdec1 000FE5                               postdec2 000FDD  
                             postinc0 000FEE                               postinc2 000FDE  
                  relay_turn_on@F2875 0033               _gpio_pin_direction_init FE9E  
                       __pidataCOMRAM FAFB                    relay_turn_on@relay 002B  
                 start_initialization FB1C                          _lat_register 000B  
                    ??_relay_turn_off 002D                         _relay_turn_on FC46  
                         __pbssCOMRAM 0032             ??_gpio_pin_direction_init 0024  
                      ?_relay_turn_on 002B             gpio_pin_write_logic@logic 0024  
            ??_Application_initialize 0030                      _relay_initialize FCC6  
               led_toggle_logic@F2891 0035       __end_of_gpio_pin_direction_init 0000  
                           copy_data0 FB30                     relay_turn_off@ret 002E  
                            __Hrparam 0000                       ??_relay_turn_on 002D  
                            __Lrparam 0000                              isa$xinst 000000  
                    relay_turn_on@ret 002E  gpio_pin_direction_init@_pin_config_t 0022  
        __end_of_gpio_pin_write_logic FE9E                _Application_initialize FADC  
            __end_of_relay_initialize FD5E            gpio_pin_direction_init@ret 002A  
                       _port_register 0001  
