

Microchip MPLAB XC8 Assembler V2.40 build 20220703182018 
                                                                                               Fri Nov 18 21:35:19 2022

Microchip MPLAB XC8 C Compiler v2.40 (Free license) build 20220703182018 Og1 
     1                           	processor	18F4620
     2                           	fnconf	rparam,??,?,0
     3                           	pagewidth 120
     4                           	opt	flic
     5                           	psect	idataCOMRAM,global,class=CODE,delta=1,noexec
     6                           	psect	idataBANK0,global,class=CODE,delta=1,noexec
     7                           	psect	smallconst,global,reloc=2,class=SMALLCONST,delta=1,noexec
     8                           	psect	cinit,global,reloc=2,class=CODE,delta=1
     9                           	psect	bssCOMRAM,global,class=COMRAM,space=1,delta=1,lowdata,noexec
    10                           	psect	dataCOMRAM,global,class=COMRAM,space=1,delta=1,lowdata,noexec
    11                           	psect	dataBANK0,global,class=BANK0,space=1,delta=1,lowdata,noexec
    12                           	psect	cstackBANK0,global,class=BANK0,space=1,delta=1,lowdata,noexec
    13                           	psect	cstackCOMRAM,global,class=COMRAM,space=1,delta=1,lowdata,noexec
    14                           	psect	text0,global,reloc=2,class=CODE,delta=1
    15                           	psect	text1,global,reloc=2,class=CODE,delta=1
    16                           	psect	text2,global,reloc=2,class=CODE,delta=1,inline
    17                           	psect	text3,global,reloc=2,class=CODE,delta=1
    18                           	psect	text4,global,reloc=2,class=CODE,delta=1
    19                           	psect	text5,global,reloc=2,class=CODE,delta=1
    20                           	psect	text6,global,reloc=2,class=CODE,delta=1
    21                           	psect	intcode,global,reloc=2,class=CODE,delta=1
    22                           	psect	intcode_body,global,reloc=2,class=CODE,delta=1
    23                           	psect	text8,global,reloc=2,class=CODE,delta=1
    24                           	psect	text9,global,reloc=2,class=CODE,delta=1
    25                           	psect	text10,global,reloc=2,class=CODE,delta=1
    26                           	psect	text11,global,reloc=2,class=CODE,delta=1
    27                           	psect	text12,global,reloc=2,class=CODE,delta=1
    28                           	psect	text13,global,reloc=2,class=CODE,delta=1
    29                           	psect	text14,global,reloc=2,class=CODE,delta=1
    30                           	psect	text15,global,reloc=2,class=CODE,delta=1
    31                           	psect	text16,global,reloc=2,class=CODE,delta=1
    32                           	psect	text17,global,reloc=2,class=CODE,delta=1
    33                           	psect	text18,global,reloc=2,class=CODE,delta=1
    34                           	psect	text19,global,reloc=2,class=CODE,delta=1
    35                           	psect	text20,global,reloc=2,class=CODE,delta=1
    36                           	psect	text21,global,reloc=2,class=CODE,delta=1
    37                           	psect	text22,global,reloc=2,class=CODE,delta=1
    38                           	psect	text23,global,reloc=2,class=CODE,delta=1
    39                           	psect	text24,global,reloc=2,class=CODE,delta=1
    40                           	psect	text25,global,reloc=2,class=CODE,delta=1
    41                           	psect	intsave_regs,global,class=BIGRAM,space=1,delta=1,noexec
    42                           	psect	text26,global,reloc=2,class=CODE,delta=1
    43                           	psect	rparam,global,class=COMRAM,space=1,delta=1,noexec
    44                           	psect	temp,global,ovrld,common,class=COMRAM,space=1,delta=1
    45                           	psect	idloc,global,abs,ovrld,class=IDLOC,space=5,delta=1,noexec
    46                           	psect	config,global,abs,ovrld,class=CONFIG,space=4,delta=1,noexec
    47   000000                     
    48                           ; Version 2.40
    49                           ; Generated 17/11/2021 GMT
    50                           ; 
    51                           ; Copyright © 2021, Microchip Technology Inc. and its subsidiaries ("Microchip")
    52                           ; All rights reserved.
    53                           ; 
    54                           ; This software is developed by Microchip Technology Inc. and its subsidiaries ("Microch
      +                          ip").
    55                           ; 
    56                           ; Redistribution and use in source and binary forms, with or without modification, are
    57                           ; permitted provided that the following conditions are met:
    58                           ; 
    59                           ;     1. Redistributions of source code must retain the above copyright notice, this lis
      +                          t of
    60                           ;        conditions and the following disclaimer.
    61                           ; 
    62                           ;     2. Redistributions in binary form must reproduce the above copyright notice, this 
      +                          list
    63                           ;        of conditions and the following disclaimer in the documentation and/or other
    64                           ;        materials provided with the distribution. Publication is not required when
    65                           ;        this file is used in an embedded application.
    66                           ; 
    67                           ;     3. Microchip's name may not be used to endorse or promote products derived from th
      +                          is
    68                           ;        software without specific prior written permission.
    69                           ; 
    70                           ; THIS SOFTWARE IS PROVIDED BY MICROCHIP "AS IS" AND ANY EXPRESS OR IMPLIED WARRANTIES,
    71                           ; INCLUDING, BUT NOT LIMITED TO, THE IMPLIED WARRANTIES OF MERCHANTABILITY AND FITNESS F
      +                          OR
    72                           ; PURPOSE ARE DISCLAIMED.  IN NO EVENT SHALL MICROCHIP BE LIABLE FOR ANY DIRECT, INDIREC
      +                          T,
    73                           ; INCIDENTAL, SPECIAL, EXEMPLARY, OR CONSEQUENTIAL DAMAGES (INCLUDING BUT NOT LIMITED TO
    74                           ; PROCUREMENT OF SUBSTITUTE GOODS OR SERVICES; LOSS OF USE, DATA OR PROFITS; OR BUSINESS
    75                           ; INTERRUPTION) HOWSOEVER CAUSED AND ON ANY THEORY OF LIABILITY, WHETHER IN CONTRACT, ST
      +                          RICT
    76                           ; LIABILITY, OR TORT (INCLUDING NEGLIGENCE OR OTHERWISE) ARISING IN ANY WAY OUT OF THE U
      +                          SE OF
    77                           ; THIS SOFTWARE, EVEN IF ADVISED OF THE POSSIBILITY OF SUCH DAMAGE.
    78                           ; 
    79                           ; 
    80                           ; Code-generator required, PIC18F4620 Definitions
    81                           ; 
    82                           ; SFR Addresses
    83   000000                     
    84                           	psect	idataCOMRAM
    85   0018CE                     __pidataCOMRAM:
    86                           	callstack 0
    87                           
    88                           ;initializer for _lat_register
    89   0018CE  89                 	db	137
    90   0018CF  0F                 	db	15
    91   0018D0  8A                 	db	138
    92   0018D1  0F                 	db	15
    93   0018D2  8B                 	db	139
    94   0018D3  0F                 	db	15
    95   0018D4  8C                 	db	140
    96   0018D5  0F                 	db	15
    97   0018D6  8D                 	db	141
    98   0018D7  0F                 	db	15
    99                           
   100                           ;initializer for _tris_register
   101   0018D8  92                 	db	146
   102   0018D9  0F                 	db	15
   103   0018DA  93                 	db	147
   104   0018DB  0F                 	db	15
   105   0018DC  94                 	db	148
   106   0018DD  0F                 	db	15
   107   0018DE  95                 	db	149
   108   0018DF  0F                 	db	15
   109   0018E0  96                 	db	150
   110   0018E1  0F                 	db	15
   111                           
   112                           ;initializer for _timer1_obj
   113   0018E2  60                 	db	low _timer1_defaultHandler
   114   0018E3  19                 	db	high _timer1_defaultHandler
   115   0018E4  00                 	db	0
   116   0018E5  0BDC               	dw	3036
   117   0018E7  38                 	db	56
   118                           
   119                           ;initializer for _timer2_obj
   120   0018E8  1E                 	db	low _timer2_defaultHandler
   121   0018E9  19                 	db	high _timer2_defaultHandler
   122   0018EA  00                 	db	0
   123   0018EB  0F                 	db	15
   124   0018EC  F9                 	db	249
   125                           
   126                           ;initializer for _ret
   127   0018ED  01                 	db	1
   128                           
   129                           ;initializer for _timer3_obj
   130   0018EE  F8                 	db	low _timer3_defaultHandler
   131   0018EF  18                 	db	high _timer3_defaultHandler
   132   0018F0  00                 	db	0
   133   0018F1  0BDC               	dw	3036
   134   0018F3  13                 	db	19
   135                           
   136                           ;initializer for _led3
   137   0018F4  22                 	db	34
   138                           
   139                           ;initializer for _led2
   140   0018F5  12                 	db	18
   141                           
   142                           ;initializer for _led1
   143   0018F6  02                 	db	2
   144                           
   145                           	psect	idataBANK0
   146   00197A                     __pidataBANK0:
   147                           	callstack 0
   148                           
   149                           ;initializer for _port_register
   150   00197A  80                 	db	128
   151   00197B  0F                 	db	15
   152   00197C  81                 	db	129
   153   00197D  0F                 	db	15
   154   00197E  82                 	db	130
   155   00197F  0F                 	db	15
   156   001980  83                 	db	131
   157   001981  0F                 	db	15
   158   001982  84                 	db	132
   159   001983  0F                 	db	15
   160                           
   161                           ;initializer for _timer0_obj
   162   001984  92                 	db	low _timer0_defaultHandler
   163   001985  19                 	db	high _timer0_defaultHandler
   164   001986  00                 	db	0
   165   001987  03                 	db	3
   166   001988  0BDC               	dw	3036
   167   00198A  0A                 	db	10
   168                           
   169                           ;initializer for _counter1_obj
   170   00198B  00                 	db	0
   171   00198C  00                 	db	0
   172   00198D  00                 	db	0
   173   00198E  0000               	dw	0
   174   001990  0B                 	db	11
   175                           
   176                           	psect	smallconst
   177   001000                     __psmallconst:
   178                           	callstack 0
   179   001000  00                 	db	0
   180   001001  37                 	db	55
   181   001002  38                 	db	56
   182   001003  39                 	db	57
   183   001004  2F                 	db	47
   184   001005  34                 	db	52
   185   001006  35                 	db	53
   186   001007  36                 	db	54
   187   001008  2A                 	db	42
   188   001009  31                 	db	49
   189   00100A  32                 	db	50
   190   00100B  33                 	db	51
   191   00100C  2D                 	db	45
   192   00100D  23                 	db	35
   193   00100E  30                 	db	48
   194   00100F  3D                 	db	61
   195   001010  2B                 	db	43
   196   001011                     __end_of_btn_values:
   197                           	callstack 0
   198   000000                     _TMR3L	set	4018
   199   000000                     _TMR3H	set	4019
   200   000000                     _TMR1L	set	4046
   201   000000                     _TMR1H	set	4047
   202   000000                     _TMR0L	set	4054
   203   000000                     _TMR0H	set	4055
   204   000000                     _INTCON2bits	set	4081
   205   000000                     _EECON2	set	4007
   206   000000                     _ADCON1bits	set	4033
   207   000000                     _ADRESL	set	4035
   208   000000                     _ADRESH	set	4036
   209   000000                     _INTCONbits	set	4082
   210   000000                     _TRISD	set	3989
   211   000000                     _TRISC	set	3988
   212   000000                     _TRISB	set	3987
   213   000000                     _TRISE	set	3990
   214   000000                     _PORTBbits	set	3969
   215   000000                     _PIE1bits	set	3997
   216   000000                     _ADCON2bits	set	4032
   217   000000                     _ADCON0bits	set	4034
   218   000000                     _PORTE	set	3972
   219   000000                     _PORTD	set	3971
   220   000000                     _PORTC	set	3970
   221   000000                     _PORTB	set	3969
   222   000000                     _PORTA	set	3968
   223   000000                     _LATA	set	3977
   224   000000                     _TRISA	set	3986
   225   000000                     _PIE2bits	set	4000
   226   000000                     _EECON1bits	set	4006
   227   000000                     _EEDATA	set	4008
   228   000000                     _EEADR	set	4009
   229   000000                     _EEADRH	set	4010
   230   000000                     _PIR1bits	set	3998
   231   000000                     _T2CONbits	set	4042
   232   000000                     _T1CONbits	set	4045
   233   000000                     _T0CONbits	set	4053
   234   000000                     _INTCON3bits	set	4080
   235   000000                     _T3CONbits	set	4017
   236   000000                     _LATE	set	3981
   237   000000                     _LATD	set	3980
   238   000000                     _LATC	set	3979
   239   000000                     _LATB	set	3978
   240   000000                     _PIR2bits	set	4001
   241   000000                     _TMR2	set	4044
   242   001011                     STR_1:
   243   001011  25                 	db	37
   244   001012  69                 	db	105	;'i'
   245   001013  00                 	db	0
   246   001014  00                 	db	0	; dummy byte at the end
   247   000000                     
   248                           ; #config settings
   249                           
   250                           	psect	cinit
   251   00172C                     __pcinit:
   252                           	callstack 0
   253   00172C                     start_initialization:
   254                           	callstack 0
   255   00172C                     __initialization:
   256                           	callstack 0
   257                           
   258                           ; Initialize objects allocated to BANK0 (23 bytes)
   259                           ; load TBLPTR registers with __pidataBANK0
   260   00172C  0E7A               	movlw	low __pidataBANK0
   261   00172E  6EF6               	movwf	tblptrl,c
   262   001730  0E19               	movlw	high __pidataBANK0
   263   001732  6EF7               	movwf	tblptrh,c
   264   001734  0E00               	movlw	low (__pidataBANK0 shr (0+16))
   265   001736  6EF8               	movwf	tblptru,c
   266   001738  EE00  F080         	lfsr	0,__pdataBANK0
   267   00173C  EE10 F017          	lfsr	1,23
   268   001740                     copy_data0:
   269   001740  0009               	tblrd		*+
   270   001742  CFF5 FFEE          	movff	tablat,postinc0
   271   001746  50E5               	movf	postdec1,w,c
   272   001748  50E1               	movf	fsr1l,w,c
   273   00174A  E1FA               	bnz	copy_data0
   274                           
   275                           ; Initialize objects allocated to COMRAM (41 bytes)
   276                           ; load TBLPTR registers with __pidataCOMRAM
   277   00174C  0ECE               	movlw	low __pidataCOMRAM
   278   00174E  6EF6               	movwf	tblptrl,c
   279   001750  0E18               	movlw	high __pidataCOMRAM
   280   001752  6EF7               	movwf	tblptrh,c
   281   001754  0E00               	movlw	low (__pidataCOMRAM shr (0+16))
   282   001756  6EF8               	movwf	tblptru,c
   283   001758  EE00  F031         	lfsr	0,__pdataCOMRAM
   284   00175C  EE10 F029          	lfsr	1,41
   285   001760                     copy_data1:
   286   001760  0009               	tblrd		*+
   287   001762  CFF5 FFEE          	movff	tablat,postinc0
   288   001766  50E5               	movf	postdec1,w,c
   289   001768  50E1               	movf	fsr1l,w,c
   290   00176A  E1FA               	bnz	copy_data1
   291                           
   292                           ; Clear objects allocated to COMRAM (48 bytes)
   293   00176C  EE00  F001         	lfsr	0,__pbssCOMRAM
   294   001770  0E30               	movlw	48
   295   001772                     clear_0:
   296   001772  6AEE               	clrf	postinc0,c
   297   001774  06E8               	decf	wreg,f,c
   298   001776  E1FD               	bnz	clear_0
   299   001778                     end_of_initialization:
   300                           	callstack 0
   301   001778                     __end_of__initialization:
   302                           	callstack 0
   303   001778  906E               	bcf	int$flags,0,c	;clear compiler interrupt flag (level 1)
   304   00177A  926E               	bcf	int$flags,1,c	;clear compiler interrupt flag (level 2)
   305   00177C  0100               	movlb	0
   306   00177E  EFA2  F00C         	goto	_main	;jump to C main() function
   307                           
   308                           	psect	bssCOMRAM
   309   000001                     __pbssCOMRAM:
   310                           	callstack 0
   311   000001                     _timer3_preload_value:
   312                           	callstack 0
   313   000001                     	ds	2
   314   000003                     _TIMER3_InterruptHandler:
   315                           	callstack 0
   316   000003                     	ds	2
   317   000005                     _counter_value:
   318                           	callstack 0
   319   000005                     	ds	2
   320   000007                     _TIMER2_InterruptHandler:
   321                           	callstack 0
   322   000007                     	ds	2
   323   000009                     _timer1_preload_value:
   324                           	callstack 0
   325   000009                     	ds	2
   326   00000B                     _TIMER1_InterruptHandler:
   327                           	callstack 0
   328   00000B                     	ds	2
   329   00000D                     _TIMER0_InterruptHandler:
   330                           	callstack 0
   331   00000D                     	ds	2
   332   00000F                     _timer0_preload:
   333                           	callstack 0
   334   00000F                     	ds	2
   335   000011                     _RB7_InterruptHandler:
   336                           	callstack 0
   337   000011                     	ds	2
   338   000013                     _RB6_InterruptHandler:
   339                           	callstack 0
   340   000013                     	ds	2
   341   000015                     _RB5_InterruptHandler:
   342                           	callstack 0
   343   000015                     	ds	2
   344   000017                     _RB4_InterruptHandler:
   345                           	callstack 0
   346   000017                     	ds	2
   347   000019                     _INT2_InterruptHandler:
   348                           	callstack 0
   349   000019                     	ds	2
   350   00001B                     _INT1_InterruptHandler:
   351                           	callstack 0
   352   00001B                     	ds	2
   353   00001D                     _INT0_InterruptHandler:
   354                           	callstack 0
   355   00001D                     	ds	2
   356   00001F                     _ADC_InterruptHandler:
   357                           	callstack 0
   358   00001F                     	ds	2
   359   000021                     _timer2_preload_value:
   360                           	callstack 0
   361   000021                     	ds	1
   362   000022                     relay_turn_off@F3047:
   363                           	callstack 0
   364   000022                     	ds	1
   365   000023                     relay_turn_on@F3042:
   366                           	callstack 0
   367   000023                     	ds	1
   368   000024                     relay_initialize@F3037:
   369                           	callstack 0
   370   000024                     	ds	1
   371   000025                     led_toggle_logic@F3058:
   372                           	callstack 0
   373   000025                     	ds	1
   374   000026                     led_turn_off@F3053:
   375                           	callstack 0
   376   000026                     	ds	1
   377   000027                     led_turn_on@F3048:
   378                           	callstack 0
   379   000027                     	ds	1
   380   000028                     led_initialize@F3043:
   381                           	callstack 0
   382   000028                     	ds	1
   383   000029                     Dc_motor_stop@F3067:
   384                           	callstack 0
   385   000029                     	ds	1
   386   00002A                     Dc_motor_stop@F3065:
   387                           	callstack 0
   388   00002A                     	ds	1
   389   00002B                     Dc_motor_turn_right@F3060:
   390                           	callstack 0
   391   00002B                     	ds	1
   392   00002C                     Dc_motor_turn_right@F3058:
   393                           	callstack 0
   394   00002C                     	ds	1
   395   00002D                     Dc_motor_turn_left@F3053:
   396                           	callstack 0
   397   00002D                     	ds	1
   398   00002E                     Dc_motor_turn_left@F3051:
   399                           	callstack 0
   400   00002E                     	ds	1
   401   00002F                     Dc_motor_initialize@F3044:
   402                           	callstack 0
   403   00002F                     	ds	1
   404   000030                     Dc_motor_initialize@F3042:
   405                           	callstack 0
   406   000030                     	ds	1
   407                           
   408                           	psect	dataCOMRAM
   409   000031                     __pdataCOMRAM:
   410                           	callstack 0
   411   000031                     _lat_register:
   412                           	callstack 0
   413   000031                     	ds	10
   414   00003B                     _tris_register:
   415                           	callstack 0
   416   00003B                     	ds	10
   417   000045                     _timer1_obj:
   418                           	callstack 0
   419   000045                     	ds	6
   420   00004B                     _timer2_obj:
   421                           	callstack 0
   422   00004B                     	ds	5
   423   000050                     _ret:
   424                           	callstack 0
   425   000050                     	ds	1
   426   000051                     _timer3_obj:
   427                           	callstack 0
   428   000051                     	ds	6
   429   000057                     _led3:
   430                           	callstack 0
   431   000057                     	ds	1
   432   000058                     _led2:
   433                           	callstack 0
   434   000058                     	ds	1
   435   000059                     _led1:
   436                           	callstack 0
   437   000059                     	ds	1
   438                           
   439                           	psect	dataBANK0
   440   000080                     __pdataBANK0:
   441                           	callstack 0
   442   000080                     _port_register:
   443                           	callstack 0
   444   000080                     	ds	10
   445   00008A                     _timer0_obj:
   446                           	callstack 0
   447   00008A                     	ds	7
   448   000091                     _counter1_obj:
   449                           	callstack 0
   450   000091                     	ds	6
   451                           
   452                           	psect	cstackBANK0
   453   000097                     __pcstackBANK0:
   454                           	callstack 0
   455   000097                     ??_gpio_pin_direction_init:
   456   000097                     ??_gpio_pin_write_logic:
   457   000097                     timer3_init@_timer:
   458                           	callstack 0
   459                           
   460                           ; 2 bytes @ 0x0
   461   000097                     	ds	2
   462   000099                     ??_timer3_init:
   463                           
   464                           ; 1 bytes @ 0x2
   465   000099                     	ds	4
   466   00009D                     gpio_pin_write_logic@ret:
   467                           	callstack 0
   468                           
   469                           ; 1 bytes @ 0x6
   470   00009D                     	ds	1
   471   00009E                     led_initialize@led:
   472                           	callstack 0
   473                           
   474                           ; 2 bytes @ 0x7
   475   00009E                     	ds	2
   476   0000A0                     ??_led_initialize:
   477                           
   478                           ; 1 bytes @ 0x9
   479   0000A0                     	ds	1
   480   0000A1                     led_initialize@ret:
   481                           	callstack 0
   482                           
   483                           ; 1 bytes @ 0xA
   484   0000A1                     	ds	1
   485   0000A2                     led_initialize@pin_obj:
   486                           	callstack 0
   487                           
   488                           ; 1 bytes @ 0xB
   489   0000A2                     	ds	1
   490                           
   491                           	psect	cstackCOMRAM
   492   00005A                     __pcstackCOMRAM:
   493                           	callstack 0
   494   00005A                     gpio_pin_toggle_logic@_pin_config_t:
   495                           	callstack 0
   496                           
   497                           ; 2 bytes @ 0x0
   498   00005A                     	ds	2
   499   00005C                     ??_gpio_pin_toggle_logic:
   500                           
   501                           ; 1 bytes @ 0x2
   502   00005C                     	ds	5
   503   000061                     led_toggle_logic@led:
   504                           	callstack 0
   505                           
   506                           ; 2 bytes @ 0x7
   507   000061                     	ds	2
   508   000063                     ??_led_toggle_logic:
   509                           
   510                           ; 1 bytes @ 0x9
   511   000063                     	ds	1
   512   000064                     led_toggle_logic@pin_obj:
   513                           	callstack 0
   514                           
   515                           ; 1 bytes @ 0xA
   516   000064                     	ds	1
   517   000065                     ??_InterruptManager:
   518   000065                     
   519                           ; 1 bytes @ 0xB
   520   000065                     	ds	6
   521   00006B                     gpio_pin_direction_init@_pin_config_t:
   522                           	callstack 0
   523   00006B                     gpio_pin_write_logic@_pin_config_t:
   524                           	callstack 0
   525   00006B                     Timer3_mode_select@_timer:
   526                           	callstack 0
   527                           
   528                           ; 2 bytes @ 0x11
   529   00006B                     	ds	2
   530   00006D                     gpio_pin_direction_init@ret:
   531                           	callstack 0
   532   00006D                     gpio_pin_write_logic@logic:
   533                           	callstack 0
   534   00006D                     timer3_init@ret:
   535                           	callstack 0
   536                           
   537                           ; 1 bytes @ 0x13
   538   00006D                     	ds	1
   539   00006E                     
   540                           ; 1 bytes @ 0x14
   541 ;;
   542 ;;Main: autosize = 0, tempsize = 0, incstack = 0, save=0
   543 ;;
   544 ;; *************** function _main *****************
   545 ;; Defined at:
   546 ;;		line 368 in file "Application.c"
   547 ;; Parameters:    Size  Location     Type
   548 ;;		None
   549 ;; Auto vars:     Size  Location     Type
   550 ;;		None
   551 ;; Return value:  Size  Location     Type
   552 ;;                  2  1032[None  ] int 
   553 ;; Registers used:
   554 ;;		wreg, fsr2l, fsr2h, status,2, status,0, prodl, prodh, cstack
   555 ;; Tracked objects:
   556 ;;		On entry : 0/0
   557 ;;		On exit  : 0/0
   558 ;;		Unchanged: 0/0
   559 ;; Data sizes:     COMRAM   BANK0   BANK1   BANK2   BANK3   BANK4   BANK5   BANK6   BANK7   BANK8   BANK9  BANK10  BANK1
      +1  BANK12  BANK13  BANK14  BANK15
   560 ;;      Params:         0       0       0       0       0       0       0       0       0       0       0       0       
      +0       0       0       0       0
   561 ;;      Locals:         0       0       0       0       0       0       0       0       0       0       0       0       
      +0       0       0       0       0
   562 ;;      Temps:          0       0       0       0       0       0       0       0       0       0       0       0       
      +0       0       0       0       0
   563 ;;      Totals:         0       0       0       0       0       0       0       0       0       0       0       0       
      +0       0       0       0       0
   564 ;;Total ram usage:        0 bytes
   565 ;; Hardware stack levels required when called: 8
   566 ;; This function calls:
   567 ;;		_Application_initialize
   568 ;;		_timer3_init
   569 ;; This function is called by:
   570 ;;		Startup code after reset
   571 ;; This function uses a non-reentrant model
   572 ;;
   573                           
   574                           	psect	text0
   575   001944                     __ptext0:
   576                           	callstack 0
   577   001944                     _main:
   578                           	callstack 23
   579   001944                     
   580                           ;Application.c: 369:     Application_initialize();
   581   001944  EC35  F00C         	call	_Application_initialize	;wreg free
   582   001948                     
   583                           ;Application.c: 370:     ret = timer3_init(&timer3_obj);
   584   001948  0E51               	movlw	low _timer3_obj
   585   00194A  0100               	movlb	0	; () banked
   586   00194C  6F97               	movwf	timer3_init@_timer& (0+255),b
   587   00194E  0E00               	movlw	high _timer3_obj
   588   001950  6F98               	movwf	(timer3_init@_timer+1)& (0+255),b
   589   001952  ECB6  F00A         	call	_timer3_init	;wreg free
   590   001956  6E50               	movwf	_ret^0,c
   591   001958                     l1033:
   592   001958  EFAC  F00C         	goto	l1033
   593   00195C  EF07  F000         	goto	start
   594   001960                     __end_of_main:
   595                           	callstack 0
   596                           
   597 ;; *************** function _timer3_init *****************
   598 ;; Defined at:
   599 ;;		line 34 in file "MCAL_Layer/TIMER3/timer3.c"
   600 ;; Parameters:    Size  Location     Type
   601 ;;  _timer          2    0[BANK0 ] PTR const struct .
   602 ;;		 -> timer3_obj(6), 
   603 ;; Auto vars:     Size  Location     Type
   604 ;;  ret             1   19[COMRAM] unsigned char 
   605 ;; Return value:  Size  Location     Type
   606 ;;                  1    wreg      unsigned char 
   607 ;; Registers used:
   608 ;;		wreg, fsr2l, fsr2h, status,2, status,0, cstack
   609 ;; Tracked objects:
   610 ;;		On entry : 0/0
   611 ;;		On exit  : 0/0
   612 ;;		Unchanged: 0/0
   613 ;; Data sizes:     COMRAM   BANK0   BANK1   BANK2   BANK3   BANK4   BANK5   BANK6   BANK7   BANK8   BANK9  BANK10  BANK1
      +1  BANK12  BANK13  BANK14  BANK15
   614 ;;      Params:         0       2       0       0       0       0       0       0       0       0       0       0       
      +0       0       0       0       0
   615 ;;      Locals:         1       0       0       0       0       0       0       0       0       0       0       0       
      +0       0       0       0       0
   616 ;;      Temps:          0       2       0       0       0       0       0       0       0       0       0       0       
      +0       0       0       0       0
   617 ;;      Totals:         1       4       0       0       0       0       0       0       0       0       0       0       
      +0       0       0       0       0
   618 ;;Total ram usage:        5 bytes
   619 ;; Hardware stack levels used: 1
   620 ;; Hardware stack levels required when called: 6
   621 ;; This function calls:
   622 ;;		_Timer3_mode_select
   623 ;; This function is called by:
   624 ;;		_main
   625 ;; This function uses a non-reentrant model
   626 ;;
   627                           
   628                           	psect	text1
   629   00156C                     __ptext1:
   630                           	callstack 0
   631   00156C                     _timer3_init:
   632                           	callstack 24
   633   00156C                     
   634                           ;MCAL_Layer/TIMER3/timer3.c: 35:     STD_ReturnType ret = (STD_ReturnType)0x01;
   635   00156C  0E01               	movlw	1
   636   00156E  6E6D               	movwf	timer3_init@ret^0,c
   637   001570                     
   638                           ;MCAL_Layer/TIMER3/timer3.c: 36:     if(_timer == ((void*)0)) ret = (STD_ReturnType)0x00
      +                          ;
   639   001570  0100               	movlb	0	; () banked
   640   001572  5197               	movf	timer3_init@_timer& (0+255),w,b
   641   001574  1198               	iorwf	(timer3_init@_timer+1)& (0+255),w,b
   642   001576  A4D8               	btfss	status,2,c
   643   001578  EFC0  F00A         	goto	u3601
   644   00157C  EFC2  F00A         	goto	u3600
   645   001580                     u3601:
   646   001580  EFC6  F00A         	goto	l1060
   647   001584                     u3600:
   648   001584                     
   649                           ; BSR set to: 0
   650   001584  0E00               	movlw	0
   651   001586  6E6D               	movwf	timer3_init@ret^0,c
   652   001588  EF0B  F00B         	goto	l4681
   653   00158C                     l1060:
   654                           
   655                           ; BSR set to: 0
   656                           ;MCAL_Layer/TIMER3/timer3.c: 39:         (T3CONbits.TMR3ON = 0);
   657   00158C  90B1               	bcf	177,0,c	;volatile
   658   00158E                     
   659                           ; BSR set to: 0
   660                           ;MCAL_Layer/TIMER3/timer3.c: 41:         T3CONbits.T3CKPS = (_timer->timer3_prescaler);
   661   00158E  EE20 F005          	lfsr	2,5
   662   001592  5197               	movf	timer3_init@_timer& (0+255),w,b
   663   001594  26D9               	addwf	fsr2l,f,c
   664   001596  5198               	movf	(timer3_init@_timer+1)& (0+255),w,b
   665   001598  22DA               	addwfc	fsr2h,f,c
   666   00159A  50DF               	movf	223,w,c
   667   00159C  0B03               	andlw	3
   668   00159E  6F99               	movwf	??_timer3_init& (0+255),b
   669   0015A0  3B99               	swapf	??_timer3_init& (0+255),f,b
   670   0015A2  50B1               	movf	177,w,c	;volatile
   671   0015A4  1999               	xorwf	??_timer3_init& (0+255),w,b
   672   0015A6  0BCF               	andlw	-49
   673   0015A8  1999               	xorwf	??_timer3_init& (0+255),w,b
   674   0015AA  6EB1               	movwf	177,c	;volatile
   675   0015AC                     
   676                           ; BSR set to: 0
   677                           ;MCAL_Layer/TIMER3/timer3.c: 43:         Timer3_mode_select(_timer);
   678   0015AC  C097  F06B         	movff	timer3_init@_timer,Timer3_mode_select@_timer
   679   0015B0  C098  F06C         	movff	timer3_init@_timer+1,Timer3_mode_select@_timer+1
   680   0015B4  ECC1  F00B         	call	_Timer3_mode_select	;wreg free
   681   0015B8                     
   682                           ;MCAL_Layer/TIMER3/timer3.c: 45:         TMR3H = (_timer->timer3_preload_value) >> 8;
   683   0015B8  0100               	movlb	0	; () banked
   684   0015BA  EE20 F003          	lfsr	2,3
   685   0015BE  5197               	movf	timer3_init@_timer& (0+255),w,b
   686   0015C0  26D9               	addwf	fsr2l,f,c
   687   0015C2  5198               	movf	(timer3_init@_timer+1)& (0+255),w,b
   688   0015C4  22DA               	addwfc	fsr2h,f,c
   689   0015C6  CFDE F099          	movff	postinc2,??_timer3_init
   690   0015CA  CFDD F09A          	movff	postdec2,??_timer3_init+1
   691   0015CE  C09A  F099         	movff	??_timer3_init+1,??_timer3_init
   692   0015D2  6B9A               	clrf	(??_timer3_init+1)& (0+255),b
   693   0015D4  5199               	movf	??_timer3_init& (0+255),w,b
   694   0015D6  6EB3               	movwf	179,c	;volatile
   695   0015D8                     
   696                           ; BSR set to: 0
   697                           ;MCAL_Layer/TIMER3/timer3.c: 46:         TMR3L = (uint8)(_timer->timer3_preload_value);
   698   0015D8  EE20 F003          	lfsr	2,3
   699   0015DC  5197               	movf	timer3_init@_timer& (0+255),w,b
   700   0015DE  26D9               	addwf	fsr2l,f,c
   701   0015E0  5198               	movf	(timer3_init@_timer+1)& (0+255),w,b
   702   0015E2  22DA               	addwfc	fsr2h,f,c
   703   0015E4  50DF               	movf	indf2,w,c
   704   0015E6  6EB2               	movwf	178,c	;volatile
   705   0015E8                     
   706                           ; BSR set to: 0
   707                           ;MCAL_Layer/TIMER3/timer3.c: 47:         timer3_preload_value = (_timer->timer3_preload_
      +                          value);
   708   0015E8  EE20 F003          	lfsr	2,3
   709   0015EC  5197               	movf	timer3_init@_timer& (0+255),w,b
   710   0015EE  26D9               	addwf	fsr2l,f,c
   711   0015F0  5198               	movf	(timer3_init@_timer+1)& (0+255),w,b
   712   0015F2  22DA               	addwfc	fsr2h,f,c
   713   0015F4  CFDE F001          	movff	postinc2,_timer3_preload_value
   714   0015F8  CFDD F002          	movff	postdec2,_timer3_preload_value+1
   715   0015FC                     
   716                           ; BSR set to: 0
   717                           ;MCAL_Layer/TIMER3/timer3.c: 50:         (PIE2bits.TMR3IE = 1);
   718   0015FC  82A0               	bsf	160,1,c	;volatile
   719   0015FE                     
   720                           ; BSR set to: 0
   721                           ;MCAL_Layer/TIMER3/timer3.c: 51:         (PIR2bits.TMR3IF = 0);
   722   0015FE  92A1               	bcf	161,1,c	;volatile
   723   001600                     
   724                           ; BSR set to: 0
   725                           ;MCAL_Layer/TIMER3/timer3.c: 52:         TIMER3_InterruptHandler = (_timer->TIMER3_Inter
      +                          ruptHandler);
   726   001600  C097  FFD9         	movff	timer3_init@_timer,fsr2l
   727   001604  C098  FFDA         	movff	timer3_init@_timer+1,fsr2h
   728   001608  CFDE F003          	movff	postinc2,_TIMER3_InterruptHandler
   729   00160C  CFDD F004          	movff	postdec2,_TIMER3_InterruptHandler+1
   730   001610                     
   731                           ; BSR set to: 0
   732                           ;MCAL_Layer/TIMER3/timer3.c: 65:         (INTCONbits.GIE = 1);
   733   001610  8EF2               	bsf	242,7,c	;volatile
   734   001612                     
   735                           ; BSR set to: 0
   736                           ;MCAL_Layer/TIMER3/timer3.c: 67:         (INTCONbits.PEIE = 1);
   737   001612  8CF2               	bsf	242,6,c	;volatile
   738   001614                     
   739                           ; BSR set to: 0
   740                           ;MCAL_Layer/TIMER3/timer3.c: 71:         (T3CONbits.TMR3ON = 1);
   741   001614  80B1               	bsf	177,0,c	;volatile
   742   001616                     l4681:
   743                           
   744                           ; BSR set to: 0
   745                           ;MCAL_Layer/TIMER3/timer3.c: 73:     return ret;
   746   001616  506D               	movf	timer3_init@ret^0,w,c
   747   001618                     
   748                           ; BSR set to: 0
   749   001618  0012               	return		;funcret
   750   00161A                     __end_of_timer3_init:
   751                           	callstack 0
   752                           
   753 ;; *************** function _Timer3_mode_select *****************
   754 ;; Defined at:
   755 ;;		line 147 in file "MCAL_Layer/TIMER3/timer3.c"
   756 ;; Parameters:    Size  Location     Type
   757 ;;  _timer          2   17[COMRAM] PTR const struct .
   758 ;;		 -> timer3_obj(6), 
   759 ;; Auto vars:     Size  Location     Type
   760 ;;		None
   761 ;; Return value:  Size  Location     Type
   762 ;;                  1    wreg      void 
   763 ;; Registers used:
   764 ;;		wreg, fsr2l, fsr2h, status,2, status,0
   765 ;; Tracked objects:
   766 ;;		On entry : 0/0
   767 ;;		On exit  : 0/0
   768 ;;		Unchanged: 0/0
   769 ;; Data sizes:     COMRAM   BANK0   BANK1   BANK2   BANK3   BANK4   BANK5   BANK6   BANK7   BANK8   BANK9  BANK10  BANK1
      +1  BANK12  BANK13  BANK14  BANK15
   770 ;;      Params:         2       0       0       0       0       0       0       0       0       0       0       0       
      +0       0       0       0       0
   771 ;;      Locals:         0       0       0       0       0       0       0       0       0       0       0       0       
      +0       0       0       0       0
   772 ;;      Temps:          0       0       0       0       0       0       0       0       0       0       0       0       
      +0       0       0       0       0
   773 ;;      Totals:         2       0       0       0       0       0       0       0       0       0       0       0       
      +0       0       0       0       0
   774 ;;Total ram usage:        2 bytes
   775 ;; Hardware stack levels used: 1
   776 ;; Hardware stack levels required when called: 5
   777 ;; This function calls:
   778 ;;		Nothing
   779 ;; This function is called by:
   780 ;;		_timer3_init
   781 ;; This function uses a non-reentrant model
   782 ;;
   783                           
   784                           	psect	text2
   785   001782                     __ptext2:
   786                           	callstack 0
   787   001782                     _Timer3_mode_select:
   788                           	callstack 24
   789   001782                     
   790                           ;MCAL_Layer/TIMER3/timer3.c: 148:     if((_timer->timer3_mode) == 0){
   791   001782  EE20 F005          	lfsr	2,5
   792   001786  506B               	movf	Timer3_mode_select@_timer^0,w,c
   793   001788  26D9               	addwf	fsr2l,f,c
   794   00178A  506C               	movf	(Timer3_mode_select@_timer+1)^0,w,c
   795   00178C  22DA               	addwfc	fsr2h,f,c
   796   00178E  B4DF               	btfsc	indf2,2,c
   797   001790  EFCC  F00B         	goto	u2351
   798   001794  EFCE  F00B         	goto	u2350
   799   001798                     u2351:
   800   001798  EFD1  F00B         	goto	l1086
   801   00179C                     u2350:
   802   00179C                     
   803                           ;MCAL_Layer/TIMER3/timer3.c: 149:         (T3CONbits.TMR3CS = 0);
   804   00179C  92B1               	bcf	177,1,c	;volatile
   805                           
   806                           ;MCAL_Layer/TIMER3/timer3.c: 150:     }else{
   807   00179E  EFE3  F00B         	goto	l1090
   808   0017A2                     l1086:
   809                           
   810                           ;MCAL_Layer/TIMER3/timer3.c: 151:         (T3CONbits.TMR3CS = 1);
   811   0017A2  82B1               	bsf	177,1,c	;volatile
   812   0017A4                     
   813                           ;MCAL_Layer/TIMER3/timer3.c: 152:         if((_timer->timer3_counter_mode) == 0){
   814   0017A4  EE20 F005          	lfsr	2,5
   815   0017A8  506B               	movf	Timer3_mode_select@_timer^0,w,c
   816   0017AA  26D9               	addwf	fsr2l,f,c
   817   0017AC  506C               	movf	(Timer3_mode_select@_timer+1)^0,w,c
   818   0017AE  22DA               	addwfc	fsr2h,f,c
   819   0017B0  B6DF               	btfsc	indf2,3,c
   820   0017B2  EFDD  F00B         	goto	u2361
   821   0017B6  EFDF  F00B         	goto	u2360
   822   0017BA                     u2361:
   823   0017BA  EFE2  F00B         	goto	l1088
   824   0017BE                     u2360:
   825   0017BE                     
   826                           ;MCAL_Layer/TIMER3/timer3.c: 153:             (T3CONbits.T3SYNC = 0);
   827   0017BE  94B1               	bcf	177,2,c	;volatile
   828                           
   829                           ;MCAL_Layer/TIMER3/timer3.c: 154:         }else{
   830   0017C0  EFE3  F00B         	goto	l1090
   831   0017C4                     l1088:
   832                           
   833                           ;MCAL_Layer/TIMER3/timer3.c: 155:             (T3CONbits.T3SYNC = 1);
   834   0017C4  84B1               	bsf	177,2,c	;volatile
   835   0017C6                     l1090:
   836   0017C6  0012               	return		;funcret
   837   0017C8                     __end_of_Timer3_mode_select:
   838                           	callstack 0
   839                           
   840 ;; *************** function _Application_initialize *****************
   841 ;; Defined at:
   842 ;;		line 378 in file "Application.c"
   843 ;; Parameters:    Size  Location     Type
   844 ;;		None
   845 ;; Auto vars:     Size  Location     Type
   846 ;;		None
   847 ;; Return value:  Size  Location     Type
   848 ;;                  1    wreg      void 
   849 ;; Registers used:
   850 ;;		wreg, fsr2l, fsr2h, status,2, status,0, prodl, prodh, cstack
   851 ;; Tracked objects:
   852 ;;		On entry : 0/0
   853 ;;		On exit  : 0/0
   854 ;;		Unchanged: 0/0
   855 ;; Data sizes:     COMRAM   BANK0   BANK1   BANK2   BANK3   BANK4   BANK5   BANK6   BANK7   BANK8   BANK9  BANK10  BANK1
      +1  BANK12  BANK13  BANK14  BANK15
   856 ;;      Params:         0       0       0       0       0       0       0       0       0       0       0       0       
      +0       0       0       0       0
   857 ;;      Locals:         0       0       0       0       0       0       0       0       0       0       0       0       
      +0       0       0       0       0
   858 ;;      Temps:          0       0       0       0       0       0       0       0       0       0       0       0       
      +0       0       0       0       0
   859 ;;      Totals:         0       0       0       0       0       0       0       0       0       0       0       0       
      +0       0       0       0       0
   860 ;;Total ram usage:        0 bytes
   861 ;; Hardware stack levels used: 1
   862 ;; Hardware stack levels required when called: 7
   863 ;; This function calls:
   864 ;;		_led_initialize
   865 ;; This function is called by:
   866 ;;		_main
   867 ;; This function uses a non-reentrant model
   868 ;;
   869                           
   870                           	psect	text3
   871   00186A                     __ptext3:
   872                           	callstack 0
   873   00186A                     _Application_initialize:
   874                           	callstack 23
   875   00186A                     
   876                           ;Application.c: 379:     ret = led_initialize(&led1);
   877   00186A  0E59               	movlw	low _led1
   878   00186C  0100               	movlb	0	; () banked
   879   00186E  6F9E               	movwf	led_initialize@led& (0+255),b
   880   001870  0E00               	movlw	high _led1
   881   001872  6F9F               	movwf	(led_initialize@led+1)& (0+255),b
   882   001874  EC0D  F00B         	call	_led_initialize	;wreg free
   883   001878  6E50               	movwf	_ret^0,c
   884                           
   885                           ;Application.c: 380:     ret = led_initialize(&led2);
   886   00187A  0E58               	movlw	low _led2
   887   00187C  0100               	movlb	0	; () banked
   888   00187E  6F9E               	movwf	led_initialize@led& (0+255),b
   889   001880  0E00               	movlw	high _led2
   890   001882  6F9F               	movwf	(led_initialize@led+1)& (0+255),b
   891   001884  EC0D  F00B         	call	_led_initialize	;wreg free
   892   001888  6E50               	movwf	_ret^0,c
   893                           
   894                           ;Application.c: 381:     ret = led_initialize(&led3);
   895   00188A  0E57               	movlw	low _led3
   896   00188C  0100               	movlb	0	; () banked
   897   00188E  6F9E               	movwf	led_initialize@led& (0+255),b
   898   001890  0E00               	movlw	high _led3
   899   001892  6F9F               	movwf	(led_initialize@led+1)& (0+255),b
   900   001894  EC0D  F00B         	call	_led_initialize	;wreg free
   901   001898  6E50               	movwf	_ret^0,c
   902   00189A  0012               	return		;funcret
   903   00189C                     __end_of_Application_initialize:
   904                           	callstack 0
   905                           
   906 ;; *************** function _led_initialize *****************
   907 ;; Defined at:
   908 ;;		line 20 in file "ECU_Layer/Ecu_led.c"
   909 ;; Parameters:    Size  Location     Type
   910 ;;  led             2    7[BANK0 ] PTR const struct .
   911 ;;		 -> led3(1), led2(1), led1(1), 
   912 ;; Auto vars:     Size  Location     Type
   913 ;;  pin_obj         1   11[BANK0 ] struct .
   914 ;;  ret             1   10[BANK0 ] unsigned char 
   915 ;; Return value:  Size  Location     Type
   916 ;;                  1    wreg      unsigned char 
   917 ;; Registers used:
   918 ;;		wreg, fsr2l, fsr2h, status,2, status,0, prodl, prodh, cstack
   919 ;; Tracked objects:
   920 ;;		On entry : 0/0
   921 ;;		On exit  : 0/0
   922 ;;		Unchanged: 0/0
   923 ;; Data sizes:     COMRAM   BANK0   BANK1   BANK2   BANK3   BANK4   BANK5   BANK6   BANK7   BANK8   BANK9  BANK10  BANK1
      +1  BANK12  BANK13  BANK14  BANK15
   924 ;;      Params:         0       2       0       0       0       0       0       0       0       0       0       0       
      +0       0       0       0       0
   925 ;;      Locals:         0       2       0       0       0       0       0       0       0       0       0       0       
      +0       0       0       0       0
   926 ;;      Temps:          0       1       0       0       0       0       0       0       0       0       0       0       
      +0       0       0       0       0
   927 ;;      Totals:         0       5       0       0       0       0       0       0       0       0       0       0       
      +0       0       0       0       0
   928 ;;Total ram usage:        5 bytes
   929 ;; Hardware stack levels used: 1
   930 ;; Hardware stack levels required when called: 6
   931 ;; This function calls:
   932 ;;		_gpio_pin_direction_init
   933 ;;		_gpio_pin_write_logic
   934 ;; This function is called by:
   935 ;;		_Application_initialize
   936 ;; This function uses a non-reentrant model
   937 ;;
   938                           
   939                           	psect	text4
   940   00161A                     __ptext4:
   941                           	callstack 0
   942   00161A                     _led_initialize:
   943                           	callstack 23
   944   00161A                     
   945                           ;ECU_Layer/Ecu_led.c: 21:     STD_ReturnType ret = (STD_ReturnType)0x01;
   946   00161A  0E01               	movlw	1
   947   00161C  0100               	movlb	0	; () banked
   948   00161E  6FA1               	movwf	led_initialize@ret& (0+255),b
   949   001620                     
   950                           ; BSR set to: 0
   951                           ;ECU_Layer/Ecu_led.c: 22:     if(led == ((void*)0)) ret = (STD_ReturnType)0x00;
   952   001620  519E               	movf	led_initialize@led& (0+255),w,b
   953   001622  119F               	iorwf	(led_initialize@led+1)& (0+255),w,b
   954   001624  A4D8               	btfss	status,2,c
   955   001626  EF17  F00B         	goto	u3541
   956   00162A  EF19  F00B         	goto	u3540
   957   00162E                     u3541:
   958   00162E  EF1D  F00B         	goto	l283
   959   001632                     u3540:
   960   001632                     
   961                           ; BSR set to: 0
   962   001632  0E00               	movlw	0
   963   001634  6FA1               	movwf	led_initialize@ret& (0+255),b
   964   001636  EF5A  F00B         	goto	l4595
   965   00163A                     l283:
   966                           
   967                           ; BSR set to: 0
   968                           ;ECU_Layer/Ecu_led.c: 24:        pin_config_t pin_obj = {
   969   00163A  C028  F0A2         	movff	led_initialize@F3043,led_initialize@pin_obj
   970   00163E                     
   971                           ; BSR set to: 0
   972   00163E  C09E  FFD9         	movff	led_initialize@led,fsr2l
   973   001642  C09F  FFDA         	movff	led_initialize@led+1,fsr2h
   974   001646  50DF               	movf	223,w,c
   975   001648  0B0F               	andlw	15
   976   00164A  6FA0               	movwf	??_led_initialize& (0+255),b
   977   00164C  51A2               	movf	led_initialize@pin_obj& (0+255),w,b
   978   00164E  19A0               	xorwf	??_led_initialize& (0+255),w,b
   979   001650  0BF8               	andlw	-8
   980   001652  19A0               	xorwf	??_led_initialize& (0+255),w,b
   981   001654  6FA2               	movwf	led_initialize@pin_obj& (0+255),b
   982   001656  C09E  FFD9         	movff	led_initialize@led,fsr2l
   983   00165A  C09F  FFDA         	movff	led_initialize@led+1,fsr2h
   984   00165E  38DF               	swapf	223,w,c
   985   001660  0B07               	andlw	7
   986   001662  6FA0               	movwf	??_led_initialize& (0+255),b
   987   001664  47A0               	rlncf	??_led_initialize& (0+255),f,b
   988   001666  47A0               	rlncf	??_led_initialize& (0+255),f,b
   989   001668  47A0               	rlncf	??_led_initialize& (0+255),f,b
   990   00166A  51A2               	movf	led_initialize@pin_obj& (0+255),w,b
   991   00166C  19A0               	xorwf	??_led_initialize& (0+255),w,b
   992   00166E  0BC7               	andlw	-57
   993   001670  19A0               	xorwf	??_led_initialize& (0+255),w,b
   994   001672  6FA2               	movwf	led_initialize@pin_obj& (0+255),b
   995   001674                     
   996                           ; BSR set to: 0
   997   001674  9DA2               	bcf	led_initialize@pin_obj& (0+255),6,b
   998   001676                     
   999                           ; BSR set to: 0
  1000   001676  C09E  FFD9         	movff	led_initialize@led,fsr2l
  1001   00167A  C09F  FFDA         	movff	led_initialize@led+1,fsr2h
  1002   00167E  AEDF               	btfss	indf2,7,c
  1003   001680  D002               	bra	u3555
  1004   001682  8FA2               	bsf	led_initialize@pin_obj& (0+255),7,b
  1005   001684  D002               	bra	u3557
  1006   001686                     u3555:
  1007   001686  0100               	movlb	0	; () banked
  1008   001688  9FA2               	bcf	led_initialize@pin_obj& (0+255),7,b
  1009   00168A                     u3557:
  1010   00168A                     
  1011                           ; BSR set to: 0
  1012                           ;ECU_Layer/Ecu_led.c: 30:         gpio_pin_direction_init(&pin_obj);
  1013   00168A  0EA2               	movlw	low led_initialize@pin_obj
  1014   00168C  6E6B               	movwf	gpio_pin_direction_init@_pin_config_t^0,c
  1015   00168E  0E00               	movlw	high led_initialize@pin_obj
  1016   001690  6E6C               	movwf	(gpio_pin_direction_init@_pin_config_t+1)^0,c
  1017   001692  EC02  F009         	call	_gpio_pin_direction_init	;wreg free
  1018   001696                     
  1019                           ;ECU_Layer/Ecu_led.c: 31:         gpio_pin_write_logic(&pin_obj, led->led_status);
  1020   001696  0EA2               	movlw	low led_initialize@pin_obj
  1021   001698  6E6B               	movwf	gpio_pin_write_logic@_pin_config_t^0,c
  1022   00169A  0E00               	movlw	high led_initialize@pin_obj
  1023   00169C  6E6C               	movwf	(gpio_pin_write_logic@_pin_config_t+1)^0,c
  1024   00169E  C09E  FFD9         	movff	led_initialize@led,fsr2l
  1025   0016A2  C09F  FFDA         	movff	led_initialize@led+1,fsr2h
  1026   0016A6  0100               	movlb	0	; () banked
  1027   0016A8  0E00               	movlw	0
  1028   0016AA  BEDF               	btfsc	indf2,7,c
  1029   0016AC  0E01               	movlw	1
  1030   0016AE  6E6D               	movwf	gpio_pin_write_logic@logic^0,c
  1031   0016B0  ECB6  F009         	call	_gpio_pin_write_logic	;wreg free
  1032   0016B4                     l4595:
  1033                           
  1034                           ;ECU_Layer/Ecu_led.c: 33:     return ret;
  1035   0016B4  0100               	movlb	0	; () banked
  1036   0016B6  51A1               	movf	led_initialize@ret& (0+255),w,b
  1037   0016B8                     
  1038                           ; BSR set to: 0
  1039   0016B8  0012               	return		;funcret
  1040   0016BA                     __end_of_led_initialize:
  1041                           	callstack 0
  1042                           
  1043 ;; *************** function _gpio_pin_write_logic *****************
  1044 ;; Defined at:
  1045 ;;		line 70 in file "MCAL_Layer/hal_gpio.c"
  1046 ;; Parameters:    Size  Location     Type
  1047 ;;  _pin_config_    2   17[COMRAM] PTR const struct .
  1048 ;;		 -> relay_turn_off@relayy(1), relay_turn_on@relayy(1), relay_initialize@relayy(1), led_turn_off@pin_obj(1), 
  1049 ;;		 -> led_turn_on@pin_obj(1), led_initialize@pin_obj(1), Dc_motor_stop@dc_motor_pin_2(1), Dc_motor_stop@dc_motor_pin_1
      +(1), 
  1050 ;;		 -> Dc_motor_turn_right@dc_motor_pin_2(1), Dc_motor_turn_right@dc_motor_pin_1(1), Dc_motor_turn_left@dc_motor_pin_2(
      +1), Dc_motor_turn_left@dc_motor_pin_1(1), 
  1051 ;;		 -> Dc_motor_initialize@dc_motor_pin_2(1), Dc_motor_initialize@dc_motor_pin_1(1), 
  1052 ;;  logic           1   19[COMRAM] enum E2965
  1053 ;; Auto vars:     Size  Location     Type
  1054 ;;  ret             1    6[BANK0 ] unsigned char 
  1055 ;; Return value:  Size  Location     Type
  1056 ;;                  1    wreg      unsigned char 
  1057 ;; Registers used:
  1058 ;;		wreg, fsr2l, fsr2h, status,2, status,0, prodl, prodh
  1059 ;; Tracked objects:
  1060 ;;		On entry : 0/0
  1061 ;;		On exit  : 0/0
  1062 ;;		Unchanged: 0/0
  1063 ;; Data sizes:     COMRAM   BANK0   BANK1   BANK2   BANK3   BANK4   BANK5   BANK6   BANK7   BANK8   BANK9  BANK10  BANK1
      +1  BANK12  BANK13  BANK14  BANK15
  1064 ;;      Params:         3       0       0       0       0       0       0       0       0       0       0       0       
      +0       0       0       0       0
  1065 ;;      Locals:         0       1       0       0       0       0       0       0       0       0       0       0       
      +0       0       0       0       0
  1066 ;;      Temps:          0       6       0       0       0       0       0       0       0       0       0       0       
      +0       0       0       0       0
  1067 ;;      Totals:         3       7       0       0       0       0       0       0       0       0       0       0       
      +0       0       0       0       0
  1068 ;;Total ram usage:       10 bytes
  1069 ;; Hardware stack levels used: 1
  1070 ;; Hardware stack levels required when called: 5
  1071 ;; This function calls:
  1072 ;;		Nothing
  1073 ;; This function is called by:
  1074 ;;		_led_initialize
  1075 ;;		_keypad_initialize
  1076 ;;		_keypad_get_value
  1077 ;;		_segment_initialize
  1078 ;;		_segment_write_num
  1079 ;;		_Dc_motor_initialize
  1080 ;;		_Dc_motor_turn_left
  1081 ;;		_Dc_motor_turn_right
  1082 ;;		_Dc_motor_stop
  1083 ;;		_lcd_4_bit_initialize
  1084 ;;		_lcd_4_bit_send_command
  1085 ;;		_lcd_4_bit_send_char_data
  1086 ;;		_lcd_8_bit_initialize
  1087 ;;		_lcd_8_bit_send_command
  1088 ;;		_lcd_8_bit_send_char_data
  1089 ;;		_lcd_4bit_send_t
  1090 ;;		_lcd_8bit_send_t
  1091 ;;		_led_turn_on
  1092 ;;		_led_turn_off
  1093 ;;		_relay_initialize
  1094 ;;		_relay_turn_on
  1095 ;;		_relay_turn_off
  1096 ;; This function uses a non-reentrant model
  1097 ;;
  1098                           
  1099                           	psect	text5
  1100   00136C                     __ptext5:
  1101                           	callstack 0
  1102   00136C                     _gpio_pin_write_logic:
  1103                           	callstack 23
  1104   00136C                     
  1105                           ;MCAL_Layer/hal_gpio.c: 71:     STD_ReturnType ret = (STD_ReturnType)0x01;
  1106   00136C  0E01               	movlw	1
  1107   00136E  0100               	movlb	0	; () banked
  1108   001370  6F9D               	movwf	gpio_pin_write_logic@ret& (0+255),b
  1109   001372                     
  1110                           ; BSR set to: 0
  1111                           ;MCAL_Layer/hal_gpio.c: 72:     if(_pin_config_t == ((void*)0) || (_pin_config_t->port >
      +                           5 - 1) || (_pin_config_t->pin > 8 - 1)) ret = (STD_ReturnType)0x00;
  1112   001372  506B               	movf	gpio_pin_write_logic@_pin_config_t^0,w,c
  1113   001374  106C               	iorwf	(gpio_pin_write_logic@_pin_config_t+1)^0,w,c
  1114   001376  B4D8               	btfsc	status,2,c
  1115   001378  EFC0  F009         	goto	u3451
  1116   00137C  EFC2  F009         	goto	u3450
  1117   001380                     u3451:
  1118   001380  EFE2  F009         	goto	l4509
  1119   001384                     u3450:
  1120   001384                     
  1121                           ; BSR set to: 0
  1122   001384  C06B  FFD9         	movff	gpio_pin_write_logic@_pin_config_t,fsr2l
  1123   001388  C06C  FFDA         	movff	gpio_pin_write_logic@_pin_config_t+1,fsr2h
  1124   00138C  50DF               	movf	223,w,c
  1125   00138E  0B07               	andlw	7
  1126   001390  6F97               	movwf	??_gpio_pin_write_logic& (0+255),b
  1127   001392  0E05               	movlw	5
  1128   001394  6197               	cpfslt	??_gpio_pin_write_logic& (0+255),b
  1129   001396  EFCF  F009         	goto	u3461
  1130   00139A  EFD1  F009         	goto	u3460
  1131   00139E                     u3461:
  1132   00139E  EFE2  F009         	goto	l4509
  1133   0013A2                     u3460:
  1134   0013A2                     
  1135                           ; BSR set to: 0
  1136   0013A2  C06B  FFD9         	movff	gpio_pin_write_logic@_pin_config_t,fsr2l
  1137   0013A6  C06C  FFDA         	movff	gpio_pin_write_logic@_pin_config_t+1,fsr2h
  1138   0013AA  30DF               	rrcf	223,w,c
  1139   0013AC  32E8               	rrcf	wreg,f,c
  1140   0013AE  32E8               	rrcf	wreg,f,c
  1141   0013B0  0B07               	andlw	7
  1142   0013B2  6F97               	movwf	??_gpio_pin_write_logic& (0+255),b
  1143   0013B4  0E07               	movlw	7
  1144   0013B6  6597               	cpfsgt	??_gpio_pin_write_logic& (0+255),b
  1145   0013B8  EFE0  F009         	goto	u3471
  1146   0013BC  EFE2  F009         	goto	u3470
  1147   0013C0                     u3471:
  1148   0013C0  EF47  F00A         	goto	l4517
  1149   0013C4                     u3470:
  1150   0013C4                     l4509:
  1151                           
  1152                           ; BSR set to: 0
  1153   0013C4  0E00               	movlw	0
  1154   0013C6  6F9D               	movwf	gpio_pin_write_logic@ret& (0+255),b
  1155   0013C8  EF5C  F00A         	goto	l4519
  1156   0013CC                     l4511:
  1157                           
  1158                           ; BSR set to: 0
  1159                           ;MCAL_Layer/hal_gpio.c: 76:                 (*lat_register[_pin_config_t->port] &= ~(1 <
      +                          < _pin_config_t->pin));
  1160   0013CC  C06B  FFD9         	movff	gpio_pin_write_logic@_pin_config_t,fsr2l
  1161   0013D0  C06C  FFDA         	movff	gpio_pin_write_logic@_pin_config_t+1,fsr2h
  1162   0013D4  30DF               	rrcf	223,w,c
  1163   0013D6  32E8               	rrcf	wreg,f,c
  1164   0013D8  32E8               	rrcf	wreg,f,c
  1165   0013DA  0B07               	andlw	7
  1166   0013DC  6F97               	movwf	??_gpio_pin_write_logic& (0+255),b
  1167   0013DE  0E01               	movlw	1
  1168   0013E0  6F98               	movwf	(??_gpio_pin_write_logic+1)& (0+255),b
  1169   0013E2  2B97               	incf	??_gpio_pin_write_logic& (0+255),f,b
  1170   0013E4  EFF6  F009         	goto	u3484
  1171   0013E8                     u3485:
  1172   0013E8  90D8               	bcf	status,0,c
  1173   0013EA  3798               	rlcf	(??_gpio_pin_write_logic+1)& (0+255),f,b
  1174   0013EC                     u3484:
  1175   0013EC  2F97               	decfsz	??_gpio_pin_write_logic& (0+255),f,b
  1176   0013EE  EFF4  F009         	goto	u3485
  1177   0013F2  0100               	movlb	0	; () banked
  1178   0013F4  5198               	movf	(??_gpio_pin_write_logic+1)& (0+255),w,b
  1179   0013F6  0AFF               	xorlw	255
  1180   0013F8  6F99               	movwf	(??_gpio_pin_write_logic+2)& (0+255),b
  1181   0013FA  C06B  FFD9         	movff	gpio_pin_write_logic@_pin_config_t,fsr2l
  1182   0013FE  C06C  FFDA         	movff	gpio_pin_write_logic@_pin_config_t+1,fsr2h
  1183   001402  50DF               	movf	223,w,c
  1184   001404  0B07               	andlw	7
  1185   001406  6F9A               	movwf	(??_gpio_pin_write_logic+3)& (0+255),b
  1186   001408  519A               	movf	(??_gpio_pin_write_logic+3)& (0+255),w,b
  1187   00140A  0D02               	mullw	2
  1188   00140C  0E31               	movlw	low _lat_register
  1189   00140E  24F3               	addwf	243,w,c
  1190   001410  6ED9               	movwf	fsr2l,c
  1191   001412  0E00               	movlw	high _lat_register
  1192   001414  20F4               	addwfc	prodh,w,c
  1193   001416  6EDA               	movwf	fsr2h,c
  1194   001418  CFDE F09B          	movff	postinc2,??_gpio_pin_write_logic+4
  1195   00141C  CFDD F09C          	movff	postdec2,??_gpio_pin_write_logic+5
  1196   001420  C09B  FFD9         	movff	??_gpio_pin_write_logic+4,fsr2l
  1197   001424  C09C  FFDA         	movff	??_gpio_pin_write_logic+5,fsr2h
  1198   001428  5199               	movf	(??_gpio_pin_write_logic+2)& (0+255),w,b
  1199   00142A  16DF               	andwf	indf2,f,c
  1200                           
  1201                           ;MCAL_Layer/hal_gpio.c: 77:                 break;
  1202   00142C  EF5C  F00A         	goto	l4519
  1203   001430                     l4513:
  1204                           
  1205                           ; BSR set to: 0
  1206                           ;MCAL_Layer/hal_gpio.c: 79:                 (*lat_register[_pin_config_t->port] |= (1 <<
      +                           _pin_config_t->pin));
  1207   001430  C06B  FFD9         	movff	gpio_pin_write_logic@_pin_config_t,fsr2l
  1208   001434  C06C  FFDA         	movff	gpio_pin_write_logic@_pin_config_t+1,fsr2h
  1209   001438  30DF               	rrcf	223,w,c
  1210   00143A  32E8               	rrcf	wreg,f,c
  1211   00143C  32E8               	rrcf	wreg,f,c
  1212   00143E  0B07               	andlw	7
  1213   001440  6F97               	movwf	??_gpio_pin_write_logic& (0+255),b
  1214   001442  0E01               	movlw	1
  1215   001444  6F98               	movwf	(??_gpio_pin_write_logic+1)& (0+255),b
  1216   001446  2B97               	incf	??_gpio_pin_write_logic& (0+255),f,b
  1217   001448  EF28  F00A         	goto	u3494
  1218   00144C                     u3495:
  1219   00144C  90D8               	bcf	status,0,c
  1220   00144E  3798               	rlcf	(??_gpio_pin_write_logic+1)& (0+255),f,b
  1221   001450                     u3494:
  1222   001450  2F97               	decfsz	??_gpio_pin_write_logic& (0+255),f,b
  1223   001452  EF26  F00A         	goto	u3495
  1224   001456  C06B  FFD9         	movff	gpio_pin_write_logic@_pin_config_t,fsr2l
  1225   00145A  C06C  FFDA         	movff	gpio_pin_write_logic@_pin_config_t+1,fsr2h
  1226   00145E  50DF               	movf	223,w,c
  1227   001460  0B07               	andlw	7
  1228   001462  0100               	movlb	0	; () banked
  1229   001464  6F99               	movwf	(??_gpio_pin_write_logic+2)& (0+255),b
  1230   001466  5199               	movf	(??_gpio_pin_write_logic+2)& (0+255),w,b
  1231   001468  0D02               	mullw	2
  1232   00146A  0E31               	movlw	low _lat_register
  1233   00146C  24F3               	addwf	243,w,c
  1234   00146E  6ED9               	movwf	fsr2l,c
  1235   001470  0E00               	movlw	high _lat_register
  1236   001472  20F4               	addwfc	prodh,w,c
  1237   001474  6EDA               	movwf	fsr2h,c
  1238   001476  CFDE F09A          	movff	postinc2,??_gpio_pin_write_logic+3
  1239   00147A  CFDD F09B          	movff	postdec2,??_gpio_pin_write_logic+4
  1240   00147E  C09A  FFD9         	movff	??_gpio_pin_write_logic+3,fsr2l
  1241   001482  C09B  FFDA         	movff	??_gpio_pin_write_logic+4,fsr2h
  1242   001486  5198               	movf	(??_gpio_pin_write_logic+1)& (0+255),w,b
  1243   001488  12DF               	iorwf	indf2,f,c
  1244                           
  1245                           ;MCAL_Layer/hal_gpio.c: 80:                 break;
  1246   00148A  EF5C  F00A         	goto	l4519
  1247   00148E                     l4517:
  1248                           
  1249                           ; BSR set to: 0
  1250   00148E  506D               	movf	gpio_pin_write_logic@logic^0,w,c
  1251   001490  6F97               	movwf	??_gpio_pin_write_logic& (0+255),b
  1252   001492  6B98               	clrf	(??_gpio_pin_write_logic+1)& (0+255),b
  1253                           
  1254                           ; Switch on 2 bytes has been partitioned into a top level switch of size 1, and 1 sub-sw
      +                          itches
  1255                           ; Switch size 1, requested type "simple"
  1256                           ; Number of cases is 1, Range of values is 0 to 0
  1257                           ; switch strategies available:
  1258                           ; Name         Instructions Cycles
  1259                           ; simple_byte            4     3 (average)
  1260                           ;	Chosen strategy is simple_byte
  1261   001494  5198               	movf	(??_gpio_pin_write_logic+1)& (0+255),w,b
  1262   001496  0A00               	xorlw	0	; case 0
  1263   001498  B4D8               	btfsc	status,2,c
  1264   00149A  EF51  F00A         	goto	l5301
  1265   00149E  EFE2  F009         	goto	l4509
  1266   0014A2                     l5301:
  1267                           
  1268                           ; BSR set to: 0
  1269                           ; Switch size 1, requested type "simple"
  1270                           ; Number of cases is 2, Range of values is 0 to 1
  1271                           ; switch strategies available:
  1272                           ; Name         Instructions Cycles
  1273                           ; simple_byte            7     4 (average)
  1274                           ;	Chosen strategy is simple_byte
  1275   0014A2  5197               	movf	??_gpio_pin_write_logic& (0+255),w,b
  1276   0014A4  0A00               	xorlw	0	; case 0
  1277   0014A6  B4D8               	btfsc	status,2,c
  1278   0014A8  EFE6  F009         	goto	l4511
  1279   0014AC  0A01               	xorlw	1	; case 1
  1280   0014AE  B4D8               	btfsc	status,2,c
  1281   0014B0  EF18  F00A         	goto	l4513
  1282   0014B4  EFE2  F009         	goto	l4509
  1283   0014B8                     l4519:
  1284                           
  1285                           ; BSR set to: 0
  1286                           ;MCAL_Layer/hal_gpio.c: 84:     return ret;
  1287   0014B8  519D               	movf	gpio_pin_write_logic@ret& (0+255),w,b
  1288   0014BA                     
  1289                           ; BSR set to: 0
  1290   0014BA  0012               	return		;funcret
  1291   0014BC                     __end_of_gpio_pin_write_logic:
  1292                           	callstack 0
  1293                           
  1294 ;; *************** function _gpio_pin_direction_init *****************
  1295 ;; Defined at:
  1296 ;;		line 24 in file "MCAL_Layer/hal_gpio.c"
  1297 ;; Parameters:    Size  Location     Type
  1298 ;;  _pin_config_    2   17[COMRAM] PTR const struct .
  1299 ;;		 -> relay_initialize@relayy(1), led_initialize@pin_obj(1), Dc_motor_initialize@dc_motor_pin_2(1), Dc_motor_initializ
      +e@dc_motor_pin_1(1), 
  1300 ;; Auto vars:     Size  Location     Type
  1301 ;;  ret             1   19[COMRAM] unsigned char 
  1302 ;; Return value:  Size  Location     Type
  1303 ;;                  1    wreg      unsigned char 
  1304 ;; Registers used:
  1305 ;;		wreg, fsr2l, fsr2h, status,2, status,0, prodl, prodh
  1306 ;; Tracked objects:
  1307 ;;		On entry : 0/0
  1308 ;;		On exit  : 0/0
  1309 ;;		Unchanged: 0/0
  1310 ;; Data sizes:     COMRAM   BANK0   BANK1   BANK2   BANK3   BANK4   BANK5   BANK6   BANK7   BANK8   BANK9  BANK10  BANK1
      +1  BANK12  BANK13  BANK14  BANK15
  1311 ;;      Params:         2       0       0       0       0       0       0       0       0       0       0       0       
      +0       0       0       0       0
  1312 ;;      Locals:         1       0       0       0       0       0       0       0       0       0       0       0       
      +0       0       0       0       0
  1313 ;;      Temps:          0       6       0       0       0       0       0       0       0       0       0       0       
      +0       0       0       0       0
  1314 ;;      Totals:         3       6       0       0       0       0       0       0       0       0       0       0       
      +0       0       0       0       0
  1315 ;;Total ram usage:        9 bytes
  1316 ;; Hardware stack levels used: 1
  1317 ;; Hardware stack levels required when called: 5
  1318 ;; This function calls:
  1319 ;;		Nothing
  1320 ;; This function is called by:
  1321 ;;		_led_initialize
  1322 ;;		_keypad_initialize
  1323 ;;		_button_initialize
  1324 ;;		_segment_initialize
  1325 ;;		_Dc_motor_initialize
  1326 ;;		_lcd_4_bit_initialize
  1327 ;;		_lcd_8_bit_initialize
  1328 ;;		_relay_initialize
  1329 ;;		_Interrupt_RBx_Init
  1330 ;;		_Interrupt_INTx_Pin
  1331 ;; This function uses a non-reentrant model
  1332 ;;
  1333                           
  1334                           	psect	text6
  1335   001204                     __ptext6:
  1336                           	callstack 0
  1337   001204                     _gpio_pin_direction_init:
  1338                           	callstack 23
  1339   001204                     
  1340                           ;MCAL_Layer/hal_gpio.c: 25:     STD_ReturnType ret = (STD_ReturnType)0x01;
  1341   001204  0E01               	movlw	1
  1342   001206  6E6D               	movwf	gpio_pin_direction_init@ret^0,c
  1343   001208                     
  1344                           ;MCAL_Layer/hal_gpio.c: 26:     if(_pin_config_t == ((void*)0) || (_pin_config_t->port >
      +                           (5 - 1)) || (_pin_config_t->pin > (8 - 1))) ret = (STD_ReturnType)0x00;
  1345   001208  506B               	movf	gpio_pin_direction_init@_pin_config_t^0,w,c
  1346   00120A  106C               	iorwf	(gpio_pin_direction_init@_pin_config_t+1)^0,w,c
  1347   00120C  B4D8               	btfsc	status,2,c
  1348   00120E  EF0B  F009         	goto	u3381
  1349   001212  EF0D  F009         	goto	u3380
  1350   001216                     u3381:
  1351   001216  EF2E  F009         	goto	l4483
  1352   00121A                     u3380:
  1353   00121A  C06B  FFD9         	movff	gpio_pin_direction_init@_pin_config_t,fsr2l
  1354   00121E  C06C  FFDA         	movff	gpio_pin_direction_init@_pin_config_t+1,fsr2h
  1355   001222  50DF               	movf	223,w,c
  1356   001224  0B07               	andlw	7
  1357   001226  0100               	movlb	0	; () banked
  1358   001228  6F97               	movwf	??_gpio_pin_direction_init& (0+255),b
  1359   00122A  0E05               	movlw	5
  1360   00122C  6197               	cpfslt	??_gpio_pin_direction_init& (0+255),b
  1361   00122E  EF1B  F009         	goto	u3391
  1362   001232  EF1D  F009         	goto	u3390
  1363   001236                     u3391:
  1364   001236  EF2E  F009         	goto	l4483
  1365   00123A                     u3390:
  1366   00123A                     
  1367                           ; BSR set to: 0
  1368   00123A  C06B  FFD9         	movff	gpio_pin_direction_init@_pin_config_t,fsr2l
  1369   00123E  C06C  FFDA         	movff	gpio_pin_direction_init@_pin_config_t+1,fsr2h
  1370   001242  30DF               	rrcf	223,w,c
  1371   001244  32E8               	rrcf	wreg,f,c
  1372   001246  32E8               	rrcf	wreg,f,c
  1373   001248  0B07               	andlw	7
  1374   00124A  6F97               	movwf	??_gpio_pin_direction_init& (0+255),b
  1375   00124C  0E07               	movlw	7
  1376   00124E  6597               	cpfsgt	??_gpio_pin_direction_init& (0+255),b
  1377   001250  EF2C  F009         	goto	u3401
  1378   001254  EF2E  F009         	goto	u3400
  1379   001258                     u3401:
  1380   001258  EF93  F009         	goto	l4491
  1381   00125C                     u3400:
  1382   00125C                     l4483:
  1383   00125C  0E00               	movlw	0
  1384   00125E  6E6D               	movwf	gpio_pin_direction_init@ret^0,c
  1385   001260  EFB4  F009         	goto	l4493
  1386   001264                     l4485:
  1387                           
  1388                           ; BSR set to: 0
  1389                           ;MCAL_Layer/hal_gpio.c: 30:                 (*tris_register[_pin_config_t->port] &= ~(1 
      +                          << _pin_config_t->pin));
  1390   001264  C06B  FFD9         	movff	gpio_pin_direction_init@_pin_config_t,fsr2l
  1391   001268  C06C  FFDA         	movff	gpio_pin_direction_init@_pin_config_t+1,fsr2h
  1392   00126C  30DF               	rrcf	223,w,c
  1393   00126E  32E8               	rrcf	wreg,f,c
  1394   001270  32E8               	rrcf	wreg,f,c
  1395   001272  0B07               	andlw	7
  1396   001274  6F97               	movwf	??_gpio_pin_direction_init& (0+255),b
  1397   001276  0E01               	movlw	1
  1398   001278  6F98               	movwf	(??_gpio_pin_direction_init+1)& (0+255),b
  1399   00127A  2B97               	incf	??_gpio_pin_direction_init& (0+255),f,b
  1400   00127C  EF42  F009         	goto	u3414
  1401   001280                     u3415:
  1402   001280  90D8               	bcf	status,0,c
  1403   001282  3798               	rlcf	(??_gpio_pin_direction_init+1)& (0+255),f,b
  1404   001284                     u3414:
  1405   001284  2F97               	decfsz	??_gpio_pin_direction_init& (0+255),f,b
  1406   001286  EF40  F009         	goto	u3415
  1407   00128A  0100               	movlb	0	; () banked
  1408   00128C  5198               	movf	(??_gpio_pin_direction_init+1)& (0+255),w,b
  1409   00128E  0AFF               	xorlw	255
  1410   001290  6F99               	movwf	(??_gpio_pin_direction_init+2)& (0+255),b
  1411   001292  C06B  FFD9         	movff	gpio_pin_direction_init@_pin_config_t,fsr2l
  1412   001296  C06C  FFDA         	movff	gpio_pin_direction_init@_pin_config_t+1,fsr2h
  1413   00129A  50DF               	movf	223,w,c
  1414   00129C  0B07               	andlw	7
  1415   00129E  6F9A               	movwf	(??_gpio_pin_direction_init+3)& (0+255),b
  1416   0012A0  519A               	movf	(??_gpio_pin_direction_init+3)& (0+255),w,b
  1417   0012A2  0D02               	mullw	2
  1418   0012A4  0E3B               	movlw	low _tris_register
  1419   0012A6  24F3               	addwf	243,w,c
  1420   0012A8  6ED9               	movwf	fsr2l,c
  1421   0012AA  0E00               	movlw	high _tris_register
  1422   0012AC  20F4               	addwfc	prodh,w,c
  1423   0012AE  6EDA               	movwf	fsr2h,c
  1424   0012B0  CFDE F09B          	movff	postinc2,??_gpio_pin_direction_init+4
  1425   0012B4  CFDD F09C          	movff	postdec2,??_gpio_pin_direction_init+5
  1426   0012B8  C09B  FFD9         	movff	??_gpio_pin_direction_init+4,fsr2l
  1427   0012BC  C09C  FFDA         	movff	??_gpio_pin_direction_init+5,fsr2h
  1428   0012C0  5199               	movf	(??_gpio_pin_direction_init+2)& (0+255),w,b
  1429   0012C2  16DF               	andwf	indf2,f,c
  1430                           
  1431                           ;MCAL_Layer/hal_gpio.c: 31:                 break;
  1432   0012C4  EFB4  F009         	goto	l4493
  1433   0012C8                     l4487:
  1434                           
  1435                           ; BSR set to: 0
  1436                           ;MCAL_Layer/hal_gpio.c: 33:                 (*tris_register[_pin_config_t->port] |= (1 <
      +                          < _pin_config_t->pin));
  1437   0012C8  C06B  FFD9         	movff	gpio_pin_direction_init@_pin_config_t,fsr2l
  1438   0012CC  C06C  FFDA         	movff	gpio_pin_direction_init@_pin_config_t+1,fsr2h
  1439   0012D0  30DF               	rrcf	223,w,c
  1440   0012D2  32E8               	rrcf	wreg,f,c
  1441   0012D4  32E8               	rrcf	wreg,f,c
  1442   0012D6  0B07               	andlw	7
  1443   0012D8  6F97               	movwf	??_gpio_pin_direction_init& (0+255),b
  1444   0012DA  0E01               	movlw	1
  1445   0012DC  6F98               	movwf	(??_gpio_pin_direction_init+1)& (0+255),b
  1446   0012DE  2B97               	incf	??_gpio_pin_direction_init& (0+255),f,b
  1447   0012E0  EF74  F009         	goto	u3424
  1448   0012E4                     u3425:
  1449   0012E4  90D8               	bcf	status,0,c
  1450   0012E6  3798               	rlcf	(??_gpio_pin_direction_init+1)& (0+255),f,b
  1451   0012E8                     u3424:
  1452   0012E8  2F97               	decfsz	??_gpio_pin_direction_init& (0+255),f,b
  1453   0012EA  EF72  F009         	goto	u3425
  1454   0012EE  C06B  FFD9         	movff	gpio_pin_direction_init@_pin_config_t,fsr2l
  1455   0012F2  C06C  FFDA         	movff	gpio_pin_direction_init@_pin_config_t+1,fsr2h
  1456   0012F6  50DF               	movf	223,w,c
  1457   0012F8  0B07               	andlw	7
  1458   0012FA  0100               	movlb	0	; () banked
  1459   0012FC  6F99               	movwf	(??_gpio_pin_direction_init+2)& (0+255),b
  1460   0012FE  5199               	movf	(??_gpio_pin_direction_init+2)& (0+255),w,b
  1461   001300  0D02               	mullw	2
  1462   001302  0E3B               	movlw	low _tris_register
  1463   001304  24F3               	addwf	243,w,c
  1464   001306  6ED9               	movwf	fsr2l,c
  1465   001308  0E00               	movlw	high _tris_register
  1466   00130A  20F4               	addwfc	prodh,w,c
  1467   00130C  6EDA               	movwf	fsr2h,c
  1468   00130E  CFDE F09A          	movff	postinc2,??_gpio_pin_direction_init+3
  1469   001312  CFDD F09B          	movff	postdec2,??_gpio_pin_direction_init+4
  1470   001316  C09A  FFD9         	movff	??_gpio_pin_direction_init+3,fsr2l
  1471   00131A  C09B  FFDA         	movff	??_gpio_pin_direction_init+4,fsr2h
  1472   00131E  5198               	movf	(??_gpio_pin_direction_init+1)& (0+255),w,b
  1473   001320  12DF               	iorwf	indf2,f,c
  1474                           
  1475                           ;MCAL_Layer/hal_gpio.c: 34:                 break;
  1476   001322  EFB4  F009         	goto	l4493
  1477   001326                     l4491:
  1478                           
  1479                           ; BSR set to: 0
  1480   001326  C06B  FFD9         	movff	gpio_pin_direction_init@_pin_config_t,fsr2l
  1481   00132A  C06C  FFDA         	movff	gpio_pin_direction_init@_pin_config_t+1,fsr2h
  1482   00132E  BCDF               	btfsc	indf2,6,c
  1483   001330  EF9C  F009         	goto	u3431
  1484   001334  EF9F  F009         	goto	u3430
  1485   001338                     u3431:
  1486   001338  0E01               	movlw	1
  1487   00133A  EFA0  F009         	goto	u3440
  1488   00133E                     u3430:
  1489   00133E  0E00               	movlw	0
  1490   001340                     u3440:
  1491   001340  6F97               	movwf	??_gpio_pin_direction_init& (0+255),b
  1492   001342  6B98               	clrf	(??_gpio_pin_direction_init+1)& (0+255),b
  1493                           
  1494                           ; Switch on 2 bytes has been partitioned into a top level switch of size 1, and 1 sub-sw
      +                          itches
  1495                           ; Switch size 1, requested type "simple"
  1496                           ; Number of cases is 1, Range of values is 0 to 0
  1497                           ; switch strategies available:
  1498                           ; Name         Instructions Cycles
  1499                           ; simple_byte            4     3 (average)
  1500                           ;	Chosen strategy is simple_byte
  1501   001344  5198               	movf	(??_gpio_pin_direction_init+1)& (0+255),w,b
  1502   001346  0A00               	xorlw	0	; case 0
  1503   001348  B4D8               	btfsc	status,2,c
  1504   00134A  EFA9  F009         	goto	l5303
  1505   00134E  EF2E  F009         	goto	l4483
  1506   001352                     l5303:
  1507                           
  1508                           ; BSR set to: 0
  1509                           ; Switch size 1, requested type "simple"
  1510                           ; Number of cases is 2, Range of values is 0 to 1
  1511                           ; switch strategies available:
  1512                           ; Name         Instructions Cycles
  1513                           ; simple_byte            7     4 (average)
  1514                           ;	Chosen strategy is simple_byte
  1515   001352  5197               	movf	??_gpio_pin_direction_init& (0+255),w,b
  1516   001354  0A00               	xorlw	0	; case 0
  1517   001356  B4D8               	btfsc	status,2,c
  1518   001358  EF32  F009         	goto	l4485
  1519   00135C  0A01               	xorlw	1	; case 1
  1520   00135E  B4D8               	btfsc	status,2,c
  1521   001360  EF64  F009         	goto	l4487
  1522   001364  EF2E  F009         	goto	l4483
  1523   001368                     l4493:
  1524                           
  1525                           ;MCAL_Layer/hal_gpio.c: 38:     return ret;
  1526   001368  506D               	movf	gpio_pin_direction_init@ret^0,w,c
  1527   00136A  0012               	return		;funcret
  1528   00136C                     __end_of_gpio_pin_direction_init:
  1529                           	callstack 0
  1530                           
  1531 ;; *************** function _InterruptManager *****************
  1532 ;; Defined at:
  1533 ;;		line 26 in file "MCAL_Layer/Interrupt/hal_manager_interrupt.c"
  1534 ;; Parameters:    Size  Location     Type
  1535 ;;		None
  1536 ;; Auto vars:     Size  Location     Type
  1537 ;;		None
  1538 ;; Return value:  Size  Location     Type
  1539 ;;                  1    wreg      void 
  1540 ;; Registers used:
  1541 ;;		wreg, fsr2l, fsr2h, status,2, status,0, pcl, pclath, pclatu, tosl, prodl, prodh, cstack
  1542 ;; Tracked objects:
  1543 ;;		On entry : 0/0
  1544 ;;		On exit  : 0/0
  1545 ;;		Unchanged: 0/0
  1546 ;; Data sizes:     COMRAM   BANK0   BANK1   BANK2   BANK3   BANK4   BANK5   BANK6   BANK7   BANK8   BANK9  BANK10  BANK1
      +1  BANK12  BANK13  BANK14  BANK15
  1547 ;;      Params:         0       0       0       0       0       0       0       0       0       0       0       0       
      +0       0       0       0       0
  1548 ;;      Locals:         0       0       0       0       0       0       0       0       0       0       0       0       
      +0       0       0       0       0
  1549 ;;      Temps:          6       0       0       0       0       0       0       0       0       0       0       0       
      +0       0       0       0       0
  1550 ;;      Totals:         6       0       0       0       0       0       0       0       0       0       0       0       
      +0       0       0       0       0
  1551 ;;Total ram usage:        6 bytes
  1552 ;; Hardware stack levels used: 1
  1553 ;; Hardware stack levels required when called: 4
  1554 ;; This function calls:
  1555 ;;		_ADC_ISR
  1556 ;;		_INT0_ISR
  1557 ;;		_INT1_ISR
  1558 ;;		_INT2_ISR
  1559 ;;		_RB4_ISR
  1560 ;;		_RB5_ISR
  1561 ;;		_RB6_ISR
  1562 ;;		_RB7_ISR
  1563 ;;		_TIMER0_ISR
  1564 ;;		_TIMER1_ISR
  1565 ;;		_TIMER2_ISR
  1566 ;;		_TIMER3_ISR
  1567 ;; This function is called by:
  1568 ;;		Interrupt level 2
  1569 ;; This function uses a non-reentrant model
  1570 ;;
  1571                           
  1572                           	psect	intcode
  1573   000008                     __pintcode:
  1574                           	callstack 0
  1575   000008                     _InterruptManager:
  1576                           	callstack 23
  1577                           
  1578                           ;incstack = 0
  1579   000008  826E               	bsf	int$flags,1,c	;set compiler interrupt flag (level 2)
  1580   00000A  ED0B  F008         	call	int_func,f	;refresh shadow registers
  1581                           
  1582                           	psect	intcode_body
  1583   001016                     __pintcode_body:
  1584                           	callstack 23
  1585   001016                     int_func:
  1586                           	callstack 23
  1587   001016  0006               	pop		; remove dummy address from shadow register refresh
  1588   001018  CFFA F065          	movff	pclath,??_InterruptManager
  1589   00101C  CFFB F066          	movff	pclatu,??_InterruptManager+1
  1590   001020  CFD9 F067          	movff	fsr2l,??_InterruptManager+2
  1591   001024  CFDA F068          	movff	fsr2h,??_InterruptManager+3
  1592   001028  CFF3 F069          	movff	prodl,??_InterruptManager+4
  1593   00102C  CFF4 F06A          	movff	prodh,??_InterruptManager+5
  1594   001030                     
  1595                           ;MCAL_Layer/Interrupt/hal_manager_interrupt.c: 27:     if((INTCONbits.INT0IE == 1) && (I
      +                          NTCONbits.INT0IF == 1)) INT0_ISR();
  1596   001030  A8F2               	btfss	242,4,c	;volatile
  1597   001032  EF1D  F008         	goto	i2u310_41
  1598   001036  EF1F  F008         	goto	i2u310_40
  1599   00103A                     i2u310_41:
  1600   00103A  EF28  F008         	goto	i2l4389
  1601   00103E                     i2u310_40:
  1602   00103E  A2F2               	btfss	242,1,c	;volatile
  1603   001040  EF24  F008         	goto	i2u311_41
  1604   001044  EF26  F008         	goto	i2u311_40
  1605   001048                     i2u311_41:
  1606   001048  EF28  F008         	goto	i2l4389
  1607   00104C                     i2u311_40:
  1608   00104C  ECD8  F00C         	call	_INT0_ISR	;wreg free
  1609   001050                     i2l4389:
  1610                           
  1611                           ;MCAL_Layer/Interrupt/hal_manager_interrupt.c: 28:     if((INTCON3bits.INT1IE == 1) && (
      +                          INTCON3bits.INT1IF == 1)) INT1_ISR();
  1612   001050  A6F0               	btfss	240,3,c	;volatile
  1613   001052  EF2D  F008         	goto	i2u312_41
  1614   001056  EF2F  F008         	goto	i2u312_40
  1615   00105A                     i2u312_41:
  1616   00105A  EF38  F008         	goto	i2l4395
  1617   00105E                     i2u312_40:
  1618   00105E  A0F0               	btfss	240,0,c	;volatile
  1619   001060  EF34  F008         	goto	i2u313_41
  1620   001064  EF36  F008         	goto	i2u313_40
  1621   001068                     i2u313_41:
  1622   001068  EF38  F008         	goto	i2l4395
  1623   00106C                     i2u313_40:
  1624   00106C  ECD6  F00C         	call	_INT1_ISR	;wreg free
  1625   001070                     i2l4395:
  1626                           
  1627                           ;MCAL_Layer/Interrupt/hal_manager_interrupt.c: 29:     if((INTCON3bits.INT2IE == 1) && (
      +                          INTCON3bits.INT2IF == 1)) INT2_ISR();
  1628   001070  A8F0               	btfss	240,4,c	;volatile
  1629   001072  EF3D  F008         	goto	i2u314_41
  1630   001076  EF3F  F008         	goto	i2u314_40
  1631   00107A                     i2u314_41:
  1632   00107A  EF48  F008         	goto	i2l4401
  1633   00107E                     i2u314_40:
  1634   00107E  A2F0               	btfss	240,1,c	;volatile
  1635   001080  EF44  F008         	goto	i2u315_41
  1636   001084  EF46  F008         	goto	i2u315_40
  1637   001088                     i2u315_41:
  1638   001088  EF48  F008         	goto	i2l4401
  1639   00108C                     i2u315_40:
  1640   00108C  ECD4  F00C         	call	_INT2_ISR	;wreg free
  1641   001090                     i2l4401:
  1642                           
  1643                           ;MCAL_Layer/Interrupt/hal_manager_interrupt.c: 30:     if((INTCONbits.RBIE == 1) && (INT
      +                          CONbits.RBIF == 1) && (PORTBbits.RB4 == 1)) RB4_ISR();
  1644   001090  A6F2               	btfss	242,3,c	;volatile
  1645   001092  EF4D  F008         	goto	i2u316_41
  1646   001096  EF4F  F008         	goto	i2u316_40
  1647   00109A                     i2u316_41:
  1648   00109A  EF5F  F008         	goto	i2l4409
  1649   00109E                     i2u316_40:
  1650   00109E  A0F2               	btfss	242,0,c	;volatile
  1651   0010A0  EF54  F008         	goto	i2u317_41
  1652   0010A4  EF56  F008         	goto	i2u317_40
  1653   0010A8                     i2u317_41:
  1654   0010A8  EF5F  F008         	goto	i2l4409
  1655   0010AC                     i2u317_40:
  1656   0010AC  A881               	btfss	129,4,c	;volatile
  1657   0010AE  EF5B  F008         	goto	i2u318_41
  1658   0010B2  EF5D  F008         	goto	i2u318_40
  1659   0010B6                     i2u318_41:
  1660   0010B6  EF5F  F008         	goto	i2l4409
  1661   0010BA                     i2u318_40:
  1662   0010BA  ECD2  F00C         	call	_RB4_ISR	;wreg free
  1663   0010BE                     i2l4409:
  1664                           
  1665                           ;MCAL_Layer/Interrupt/hal_manager_interrupt.c: 31:     if((INTCONbits.RBIE == 1) && (INT
      +                          CONbits.RBIF == 1) && (PORTBbits.RB5 == 1)) RB5_ISR();
  1666   0010BE  A6F2               	btfss	242,3,c	;volatile
  1667   0010C0  EF64  F008         	goto	i2u319_41
  1668   0010C4  EF66  F008         	goto	i2u319_40
  1669   0010C8                     i2u319_41:
  1670   0010C8  EF76  F008         	goto	i2l4417
  1671   0010CC                     i2u319_40:
  1672   0010CC  A0F2               	btfss	242,0,c	;volatile
  1673   0010CE  EF6B  F008         	goto	i2u320_41
  1674   0010D2  EF6D  F008         	goto	i2u320_40
  1675   0010D6                     i2u320_41:
  1676   0010D6  EF76  F008         	goto	i2l4417
  1677   0010DA                     i2u320_40:
  1678   0010DA  AA81               	btfss	129,5,c	;volatile
  1679   0010DC  EF72  F008         	goto	i2u321_41
  1680   0010E0  EF74  F008         	goto	i2u321_40
  1681   0010E4                     i2u321_41:
  1682   0010E4  EF76  F008         	goto	i2l4417
  1683   0010E8                     i2u321_40:
  1684   0010E8  ECD0  F00C         	call	_RB5_ISR	;wreg free
  1685   0010EC                     i2l4417:
  1686                           
  1687                           ;MCAL_Layer/Interrupt/hal_manager_interrupt.c: 32:     if((INTCONbits.RBIE == 1) && (INT
      +                          CONbits.RBIF == 1) && (PORTBbits.RB6 == 1)) RB6_ISR();
  1688   0010EC  A6F2               	btfss	242,3,c	;volatile
  1689   0010EE  EF7B  F008         	goto	i2u322_41
  1690   0010F2  EF7D  F008         	goto	i2u322_40
  1691   0010F6                     i2u322_41:
  1692   0010F6  EF8D  F008         	goto	i2l4425
  1693   0010FA                     i2u322_40:
  1694   0010FA  A0F2               	btfss	242,0,c	;volatile
  1695   0010FC  EF82  F008         	goto	i2u323_41
  1696   001100  EF84  F008         	goto	i2u323_40
  1697   001104                     i2u323_41:
  1698   001104  EF8D  F008         	goto	i2l4425
  1699   001108                     i2u323_40:
  1700   001108  AC81               	btfss	129,6,c	;volatile
  1701   00110A  EF89  F008         	goto	i2u324_41
  1702   00110E  EF8B  F008         	goto	i2u324_40
  1703   001112                     i2u324_41:
  1704   001112  EF8D  F008         	goto	i2l4425
  1705   001116                     i2u324_40:
  1706   001116  ECCE  F00C         	call	_RB6_ISR	;wreg free
  1707   00111A                     i2l4425:
  1708                           
  1709                           ;MCAL_Layer/Interrupt/hal_manager_interrupt.c: 33:     if((INTCONbits.RBIE == 1) && (INT
      +                          CONbits.RBIF == 1) && (PORTBbits.RB7 == 1)) RB7_ISR();
  1710   00111A  A6F2               	btfss	242,3,c	;volatile
  1711   00111C  EF92  F008         	goto	i2u325_41
  1712   001120  EF94  F008         	goto	i2u325_40
  1713   001124                     i2u325_41:
  1714   001124  EFA4  F008         	goto	i2l4433
  1715   001128                     i2u325_40:
  1716   001128  A0F2               	btfss	242,0,c	;volatile
  1717   00112A  EF99  F008         	goto	i2u326_41
  1718   00112E  EF9B  F008         	goto	i2u326_40
  1719   001132                     i2u326_41:
  1720   001132  EFA4  F008         	goto	i2l4433
  1721   001136                     i2u326_40:
  1722   001136  AE81               	btfss	129,7,c	;volatile
  1723   001138  EFA0  F008         	goto	i2u327_41
  1724   00113C  EFA2  F008         	goto	i2u327_40
  1725   001140                     i2u327_41:
  1726   001140  EFA4  F008         	goto	i2l4433
  1727   001144                     i2u327_40:
  1728   001144  ECCC  F00C         	call	_RB7_ISR	;wreg free
  1729   001148                     i2l4433:
  1730                           
  1731                           ;MCAL_Layer/Interrupt/hal_manager_interrupt.c: 34:     if((PIE1bits.ADIE == 1) && (PIR1b
      +                          its.ADIF == 1)) ADC_ISR();
  1732   001148  AC9D               	btfss	157,6,c	;volatile
  1733   00114A  EFA9  F008         	goto	i2u328_41
  1734   00114E  EFAB  F008         	goto	i2u328_40
  1735   001152                     i2u328_41:
  1736   001152  EFB4  F008         	goto	i2l4439
  1737   001156                     i2u328_40:
  1738   001156  AC9E               	btfss	158,6,c	;volatile
  1739   001158  EFB0  F008         	goto	i2u329_41
  1740   00115C  EFB2  F008         	goto	i2u329_40
  1741   001160                     i2u329_41:
  1742   001160  EFB4  F008         	goto	i2l4439
  1743   001164                     i2u329_40:
  1744   001164  ECDA  F00C         	call	_ADC_ISR	;wreg free
  1745   001168                     i2l4439:
  1746                           
  1747                           ;MCAL_Layer/Interrupt/hal_manager_interrupt.c: 35:     if((INTCONbits.TMR0IE == 1) && (I
      +                          NTCONbits.TMR0IF == 1)) TIMER0_ISR();
  1748   001168  AAF2               	btfss	242,5,c	;volatile
  1749   00116A  EFB9  F008         	goto	i2u330_41
  1750   00116E  EFBB  F008         	goto	i2u330_40
  1751   001172                     i2u330_41:
  1752   001172  EFC4  F008         	goto	i2l4445
  1753   001176                     i2u330_40:
  1754   001176  A4F2               	btfss	242,2,c	;volatile
  1755   001178  EFC0  F008         	goto	i2u331_41
  1756   00117C  EFC2  F008         	goto	i2u331_40
  1757   001180                     i2u331_41:
  1758   001180  EFC4  F008         	goto	i2l4445
  1759   001184                     i2u331_40:
  1760   001184  EC1A  F00C         	call	_TIMER0_ISR	;wreg free
  1761   001188                     i2l4445:
  1762                           
  1763                           ;MCAL_Layer/Interrupt/hal_manager_interrupt.c: 36:     if((PIE1bits.TMR1IE == 1) && (PIR
      +                          1bits.TMR1IF == 1)) TIMER1_ISR();
  1764   001188  A09D               	btfss	157,0,c	;volatile
  1765   00118A  EFC9  F008         	goto	i2u332_41
  1766   00118E  EFCB  F008         	goto	i2u332_40
  1767   001192                     i2u332_41:
  1768   001192  EFD4  F008         	goto	i2l4451
  1769   001196                     i2u332_40:
  1770   001196  A09E               	btfss	158,0,c	;volatile
  1771   001198  EFD0  F008         	goto	i2u333_41
  1772   00119C  EFD2  F008         	goto	i2u333_40
  1773   0011A0                     i2u333_41:
  1774   0011A0  EFD4  F008         	goto	i2l4451
  1775   0011A4                     i2u333_40:
  1776   0011A4  ECFF  F00B         	call	_TIMER1_ISR	;wreg free
  1777   0011A8                     i2l4451:
  1778                           
  1779                           ;MCAL_Layer/Interrupt/hal_manager_interrupt.c: 37:     if((PIE1bits.TMR2IE == 1) && (PIR
      +                          1bits.TMR2IF == 1)) TIMER2_ISR();
  1780   0011A8  A29D               	btfss	157,1,c	;volatile
  1781   0011AA  EFD9  F008         	goto	i2u334_41
  1782   0011AE  EFDB  F008         	goto	i2u334_40
  1783   0011B2                     i2u334_41:
  1784   0011B2  EFE4  F008         	goto	i2l4457
  1785   0011B6                     i2u334_40:
  1786   0011B6  A29E               	btfss	158,1,c	;volatile
  1787   0011B8  EFE0  F008         	goto	i2u335_41
  1788   0011BC  EFE2  F008         	goto	i2u335_40
  1789   0011C0                     i2u335_41:
  1790   0011C0  EFE4  F008         	goto	i2l4457
  1791   0011C4                     i2u335_40:
  1792   0011C4  EC4E  F00C         	call	_TIMER2_ISR	;wreg free
  1793   0011C8                     i2l4457:
  1794                           
  1795                           ;MCAL_Layer/Interrupt/hal_manager_interrupt.c: 38:     if((PIE2bits.TMR3IE == 1) && (PIR
      +                          2bits.TMR3IF == 1)) TIMER3_ISR();
  1796   0011C8  A2A0               	btfss	160,1,c	;volatile
  1797   0011CA  EFE9  F008         	goto	i2u336_41
  1798   0011CE  EFEB  F008         	goto	i2u336_40
  1799   0011D2                     i2u336_41:
  1800   0011D2  EFF4  F008         	goto	i2l838
  1801   0011D6                     i2u336_40:
  1802   0011D6  A2A1               	btfss	161,1,c	;volatile
  1803   0011D8  EFF0  F008         	goto	i2u337_41
  1804   0011DC  EFF2  F008         	goto	i2u337_40
  1805   0011E0                     i2u337_41:
  1806   0011E0  EFF4  F008         	goto	i2l838
  1807   0011E4                     i2u337_40:
  1808   0011E4  ECE4  F00B         	call	_TIMER3_ISR	;wreg free
  1809   0011E8                     i2l838:
  1810   0011E8  C06A  FFF4         	movff	??_InterruptManager+5,prodh
  1811   0011EC  C069  FFF3         	movff	??_InterruptManager+4,prodl
  1812   0011F0  C068  FFDA         	movff	??_InterruptManager+3,fsr2h
  1813   0011F4  C067  FFD9         	movff	??_InterruptManager+2,fsr2l
  1814   0011F8  C066  FFFB         	movff	??_InterruptManager+1,pclatu
  1815   0011FC  C065  FFFA         	movff	??_InterruptManager,pclath
  1816   001200  926E               	bcf	int$flags,1,c	;clear compiler interrupt flag (level 2)
  1817   001202  0011               	retfie		f
  1818   001204                     __end_of_InterruptManager:
  1819                           	callstack 0
  1820                           
  1821 ;; *************** function _TIMER3_ISR *****************
  1822 ;; Defined at:
  1823 ;;		line 135 in file "MCAL_Layer/TIMER3/timer3.c"
  1824 ;; Parameters:    Size  Location     Type
  1825 ;;		None
  1826 ;; Auto vars:     Size  Location     Type
  1827 ;;		None
  1828 ;; Return value:  Size  Location     Type
  1829 ;;                  1    wreg      void 
  1830 ;; Registers used:
  1831 ;;		wreg, fsr2l, fsr2h, status,2, status,0, pcl, pclath, pclatu, tosl, prodl, prodh, cstack
  1832 ;; Tracked objects:
  1833 ;;		On entry : 0/0
  1834 ;;		On exit  : 0/0
  1835 ;;		Unchanged: 0/0
  1836 ;; Data sizes:     COMRAM   BANK0   BANK1   BANK2   BANK3   BANK4   BANK5   BANK6   BANK7   BANK8   BANK9  BANK10  BANK1
      +1  BANK12  BANK13  BANK14  BANK15
  1837 ;;      Params:         0       0       0       0       0       0       0       0       0       0       0       0       
      +0       0       0       0       0
  1838 ;;      Locals:         0       0       0       0       0       0       0       0       0       0       0       0       
      +0       0       0       0       0
  1839 ;;      Temps:          0       0       0       0       0       0       0       0       0       0       0       0       
      +0       0       0       0       0
  1840 ;;      Totals:         0       0       0       0       0       0       0       0       0       0       0       0       
      +0       0       0       0       0
  1841 ;;Total ram usage:        0 bytes
  1842 ;; Hardware stack levels used: 1
  1843 ;; Hardware stack levels required when called: 3
  1844 ;; This function calls:
  1845 ;;		Absolute function
  1846 ;;		_timer3_defaultHandler
  1847 ;; This function is called by:
  1848 ;;		_InterruptManager
  1849 ;; This function uses a non-reentrant model
  1850 ;;
  1851                           
  1852                           	psect	text8
  1853   0017C8                     __ptext8:
  1854                           	callstack 0
  1855   0017C8                     _TIMER3_ISR:
  1856                           	callstack 23
  1857   0017C8                     
  1858                           ;MCAL_Layer/TIMER3/timer3.c: 136:     (PIR2bits.TMR3IF = 0);
  1859   0017C8  92A1               	bcf	161,1,c	;volatile
  1860   0017CA                     
  1861                           ;MCAL_Layer/TIMER3/timer3.c: 137:     TMR3H = (timer3_preload_value) >> 8;
  1862   0017CA  5002               	movf	(_timer3_preload_value+1)^0,w,c
  1863   0017CC  6EB3               	movwf	179,c	;volatile
  1864   0017CE                     
  1865                           ;MCAL_Layer/TIMER3/timer3.c: 138:     TMR3L = (uint8)(timer3_preload_value);
  1866   0017CE  C001  FFB2         	movff	_timer3_preload_value,4018	;volatile
  1867   0017D2                     
  1868                           ;MCAL_Layer/TIMER3/timer3.c: 139:     if(TIMER3_InterruptHandler){
  1869   0017D2  5003               	movf	_TIMER3_InterruptHandler^0,w,c
  1870   0017D4  1004               	iorwf	(_TIMER3_InterruptHandler+1)^0,w,c
  1871   0017D6  B4D8               	btfsc	status,2,c
  1872   0017D8  EFF0  F00B         	goto	i2u245_41
  1873   0017DC  EFF2  F00B         	goto	i2u245_40
  1874   0017E0                     i2u245_41:
  1875   0017E0  EFFE  F00B         	goto	i2l1083
  1876   0017E4                     i2u245_40:
  1877   0017E4                     
  1878                           ;MCAL_Layer/TIMER3/timer3.c: 140:         TIMER3_InterruptHandler();
  1879   0017E4  D802               	call	i2u246_48
  1880   0017E6  EFFE  F00B         	goto	i2u246_49
  1881   0017EA                     i2u246_48:
  1882   0017EA  0005               	push	
  1883   0017EC  6EFA               	movwf	pclath,c
  1884   0017EE  5003               	movf	_TIMER3_InterruptHandler^0,w,c
  1885   0017F0  6EFD               	movwf	tosl,c
  1886   0017F2  5004               	movf	(_TIMER3_InterruptHandler+1)^0,w,c
  1887   0017F4  6EFE               	movwf	tosh,c
  1888   0017F6  6AFF               	clrf	tosu,c
  1889   0017F8  50FA               	movf	pclath,w,c
  1890   0017FA  0012               	return		;indir
  1891   0017FC                     i2u246_49:
  1892   0017FC                     i2l1083:
  1893   0017FC  0012               	return		;funcret
  1894   0017FE                     __end_of_TIMER3_ISR:
  1895                           	callstack 0
  1896                           
  1897 ;; *************** function _timer3_defaultHandler *****************
  1898 ;; Defined at:
  1899 ;;		line 343 in file "Application.c"
  1900 ;; Parameters:    Size  Location     Type
  1901 ;;		None
  1902 ;; Auto vars:     Size  Location     Type
  1903 ;;		None
  1904 ;; Return value:  Size  Location     Type
  1905 ;;                  1    wreg      void 
  1906 ;; Registers used:
  1907 ;;		wreg, fsr2l, fsr2h, status,2, status,0, prodl, prodh, cstack
  1908 ;; Tracked objects:
  1909 ;;		On entry : 0/0
  1910 ;;		On exit  : 0/0
  1911 ;;		Unchanged: 0/0
  1912 ;; Data sizes:     COMRAM   BANK0   BANK1   BANK2   BANK3   BANK4   BANK5   BANK6   BANK7   BANK8   BANK9  BANK10  BANK1
      +1  BANK12  BANK13  BANK14  BANK15
  1913 ;;      Params:         0       0       0       0       0       0       0       0       0       0       0       0       
      +0       0       0       0       0
  1914 ;;      Locals:         0       0       0       0       0       0       0       0       0       0       0       0       
      +0       0       0       0       0
  1915 ;;      Temps:          0       0       0       0       0       0       0       0       0       0       0       0       
      +0       0       0       0       0
  1916 ;;      Totals:         0       0       0       0       0       0       0       0       0       0       0       0       
      +0       0       0       0       0
  1917 ;;Total ram usage:        0 bytes
  1918 ;; Hardware stack levels used: 1
  1919 ;; Hardware stack levels required when called: 2
  1920 ;; This function calls:
  1921 ;;		_led_toggle_logic
  1922 ;; This function is called by:
  1923 ;;		_TIMER3_ISR
  1924 ;; This function uses a non-reentrant model
  1925 ;;
  1926                           
  1927                           	psect	text9
  1928   0018F8                     __ptext9:
  1929                           	callstack 0
  1930   0018F8                     _timer3_defaultHandler:
  1931                           	callstack 23
  1932   0018F8                     
  1933                           ;Application.c: 344:     led_toggle_logic(&led1);
  1934   0018F8  0E59               	movlw	low _led1
  1935   0018FA  6E61               	movwf	led_toggle_logic@led^0,c
  1936   0018FC  0E00               	movlw	high _led1
  1937   0018FE  6E62               	movwf	(led_toggle_logic@led+1)^0,c
  1938   001900  EC5D  F00B         	call	_led_toggle_logic	;wreg free
  1939                           
  1940                           ;Application.c: 345:     led_toggle_logic(&led2);
  1941   001904  0E58               	movlw	low _led2
  1942   001906  6E61               	movwf	led_toggle_logic@led^0,c
  1943   001908  0E00               	movlw	high _led2
  1944   00190A  6E62               	movwf	(led_toggle_logic@led+1)^0,c
  1945   00190C  EC5D  F00B         	call	_led_toggle_logic	;wreg free
  1946                           
  1947                           ;Application.c: 346:     led_toggle_logic(&led3);
  1948   001910  0E57               	movlw	low _led3
  1949   001912  6E61               	movwf	led_toggle_logic@led^0,c
  1950   001914  0E00               	movlw	high _led3
  1951   001916  6E62               	movwf	(led_toggle_logic@led+1)^0,c
  1952   001918  EC5D  F00B         	call	_led_toggle_logic	;wreg free
  1953   00191C  0012               	return		;funcret
  1954   00191E                     __end_of_timer3_defaultHandler:
  1955                           	callstack 0
  1956                           
  1957 ;; *************** function _TIMER2_ISR *****************
  1958 ;; Defined at:
  1959 ;;		line 127 in file "MCAL_Layer/TIMER2/timer2.c"
  1960 ;; Parameters:    Size  Location     Type
  1961 ;;		None
  1962 ;; Auto vars:     Size  Location     Type
  1963 ;;		None
  1964 ;; Return value:  Size  Location     Type
  1965 ;;                  1    wreg      void 
  1966 ;; Registers used:
  1967 ;;		wreg, fsr2l, fsr2h, status,2, status,0, pcl, pclath, pclatu, tosl, prodl, prodh, cstack
  1968 ;; Tracked objects:
  1969 ;;		On entry : 0/0
  1970 ;;		On exit  : 0/0
  1971 ;;		Unchanged: 0/0
  1972 ;; Data sizes:     COMRAM   BANK0   BANK1   BANK2   BANK3   BANK4   BANK5   BANK6   BANK7   BANK8   BANK9  BANK10  BANK1
      +1  BANK12  BANK13  BANK14  BANK15
  1973 ;;      Params:         0       0       0       0       0       0       0       0       0       0       0       0       
      +0       0       0       0       0
  1974 ;;      Locals:         0       0       0       0       0       0       0       0       0       0       0       0       
      +0       0       0       0       0
  1975 ;;      Temps:          0       0       0       0       0       0       0       0       0       0       0       0       
      +0       0       0       0       0
  1976 ;;      Totals:         0       0       0       0       0       0       0       0       0       0       0       0       
      +0       0       0       0       0
  1977 ;;Total ram usage:        0 bytes
  1978 ;; Hardware stack levels used: 1
  1979 ;; Hardware stack levels required when called: 3
  1980 ;; This function calls:
  1981 ;;		Absolute function
  1982 ;;		_timer2_defaultHandler
  1983 ;; This function is called by:
  1984 ;;		_InterruptManager
  1985 ;; This function uses a non-reentrant model
  1986 ;;
  1987                           
  1988                           	psect	text10
  1989   00189C                     __ptext10:
  1990                           	callstack 0
  1991   00189C                     _TIMER2_ISR:
  1992                           	callstack 23
  1993   00189C                     
  1994                           ;MCAL_Layer/TIMER2/timer2.c: 128:     (PIR1bits.TMR2IF = 0);
  1995   00189C  929E               	bcf	158,1,c	;volatile
  1996                           
  1997                           ;MCAL_Layer/TIMER2/timer2.c: 129:     TMR2 = (uint8)(timer2_preload_value);
  1998   00189E  C021  FFCC         	movff	_timer2_preload_value,4044	;volatile
  1999   0018A2                     
  2000                           ;MCAL_Layer/TIMER2/timer2.c: 130:     if(TIMER2_InterruptHandler){
  2001   0018A2  5007               	movf	_TIMER2_InterruptHandler^0,w,c
  2002   0018A4  1008               	iorwf	(_TIMER2_InterruptHandler+1)^0,w,c
  2003   0018A6  B4D8               	btfsc	status,2,c
  2004   0018A8  EF58  F00C         	goto	i2u243_41
  2005   0018AC  EF5A  F00C         	goto	i2u243_40
  2006   0018B0                     i2u243_41:
  2007   0018B0  EF66  F00C         	goto	i2l988
  2008   0018B4                     i2u243_40:
  2009   0018B4                     
  2010                           ;MCAL_Layer/TIMER2/timer2.c: 131:         TIMER2_InterruptHandler();
  2011   0018B4  D802               	call	i2u244_48
  2012   0018B6  EF66  F00C         	goto	i2u244_49
  2013   0018BA                     i2u244_48:
  2014   0018BA  0005               	push	
  2015   0018BC  6EFA               	movwf	pclath,c
  2016   0018BE  5007               	movf	_TIMER2_InterruptHandler^0,w,c
  2017   0018C0  6EFD               	movwf	tosl,c
  2018   0018C2  5008               	movf	(_TIMER2_InterruptHandler+1)^0,w,c
  2019   0018C4  6EFE               	movwf	tosh,c
  2020   0018C6  6AFF               	clrf	tosu,c
  2021   0018C8  50FA               	movf	pclath,w,c
  2022   0018CA  0012               	return		;indir
  2023   0018CC                     i2u244_49:
  2024   0018CC                     i2l988:
  2025   0018CC  0012               	return		;funcret
  2026   0018CE                     __end_of_TIMER2_ISR:
  2027                           	callstack 0
  2028                           
  2029 ;; *************** function _timer2_defaultHandler *****************
  2030 ;; Defined at:
  2031 ;;		line 300 in file "Application.c"
  2032 ;; Parameters:    Size  Location     Type
  2033 ;;		None
  2034 ;; Auto vars:     Size  Location     Type
  2035 ;;		None
  2036 ;; Return value:  Size  Location     Type
  2037 ;;                  1    wreg      void 
  2038 ;; Registers used:
  2039 ;;		wreg, fsr2l, fsr2h, status,2, status,0, prodl, prodh, cstack
  2040 ;; Tracked objects:
  2041 ;;		On entry : 0/0
  2042 ;;		On exit  : 0/0
  2043 ;;		Unchanged: 0/0
  2044 ;; Data sizes:     COMRAM   BANK0   BANK1   BANK2   BANK3   BANK4   BANK5   BANK6   BANK7   BANK8   BANK9  BANK10  BANK1
      +1  BANK12  BANK13  BANK14  BANK15
  2045 ;;      Params:         0       0       0       0       0       0       0       0       0       0       0       0       
      +0       0       0       0       0
  2046 ;;      Locals:         0       0       0       0       0       0       0       0       0       0       0       0       
      +0       0       0       0       0
  2047 ;;      Temps:          0       0       0       0       0       0       0       0       0       0       0       0       
      +0       0       0       0       0
  2048 ;;      Totals:         0       0       0       0       0       0       0       0       0       0       0       0       
      +0       0       0       0       0
  2049 ;;Total ram usage:        0 bytes
  2050 ;; Hardware stack levels used: 1
  2051 ;; Hardware stack levels required when called: 2
  2052 ;; This function calls:
  2053 ;;		_led_toggle_logic
  2054 ;; This function is called by:
  2055 ;;		_TIMER2_ISR
  2056 ;; This function uses a non-reentrant model
  2057 ;;
  2058                           
  2059                           	psect	text11
  2060   00191E                     __ptext11:
  2061                           	callstack 0
  2062   00191E                     _timer2_defaultHandler:
  2063                           	callstack 23
  2064   00191E                     
  2065                           ;Application.c: 301:     led_toggle_logic(&led1);
  2066   00191E  0E59               	movlw	low _led1
  2067   001920  6E61               	movwf	led_toggle_logic@led^0,c
  2068   001922  0E00               	movlw	high _led1
  2069   001924  6E62               	movwf	(led_toggle_logic@led+1)^0,c
  2070   001926  EC5D  F00B         	call	_led_toggle_logic	;wreg free
  2071                           
  2072                           ;Application.c: 302:     led_toggle_logic(&led2);
  2073   00192A  0E58               	movlw	low _led2
  2074   00192C  6E61               	movwf	led_toggle_logic@led^0,c
  2075   00192E  0E00               	movlw	high _led2
  2076   001930  6E62               	movwf	(led_toggle_logic@led+1)^0,c
  2077   001932  EC5D  F00B         	call	_led_toggle_logic	;wreg free
  2078                           
  2079                           ;Application.c: 303:     led_toggle_logic(&led3);
  2080   001936  0E57               	movlw	low _led3
  2081   001938  6E61               	movwf	led_toggle_logic@led^0,c
  2082   00193A  0E00               	movlw	high _led3
  2083   00193C  6E62               	movwf	(led_toggle_logic@led+1)^0,c
  2084   00193E  EC5D  F00B         	call	_led_toggle_logic	;wreg free
  2085   001942  0012               	return		;funcret
  2086   001944                     __end_of_timer2_defaultHandler:
  2087                           	callstack 0
  2088                           
  2089 ;; *************** function _TIMER1_ISR *****************
  2090 ;; Defined at:
  2091 ;;		line 136 in file "hal_timer1.c"
  2092 ;; Parameters:    Size  Location     Type
  2093 ;;		None
  2094 ;; Auto vars:     Size  Location     Type
  2095 ;;		None
  2096 ;; Return value:  Size  Location     Type
  2097 ;;                  1    wreg      void 
  2098 ;; Registers used:
  2099 ;;		wreg, fsr2l, fsr2h, status,2, status,0, pcl, pclath, pclatu, tosl, prodl, prodh, cstack
  2100 ;; Tracked objects:
  2101 ;;		On entry : 0/0
  2102 ;;		On exit  : 0/0
  2103 ;;		Unchanged: 0/0
  2104 ;; Data sizes:     COMRAM   BANK0   BANK1   BANK2   BANK3   BANK4   BANK5   BANK6   BANK7   BANK8   BANK9  BANK10  BANK1
      +1  BANK12  BANK13  BANK14  BANK15
  2105 ;;      Params:         0       0       0       0       0       0       0       0       0       0       0       0       
      +0       0       0       0       0
  2106 ;;      Locals:         0       0       0       0       0       0       0       0       0       0       0       0       
      +0       0       0       0       0
  2107 ;;      Temps:          0       0       0       0       0       0       0       0       0       0       0       0       
      +0       0       0       0       0
  2108 ;;      Totals:         0       0       0       0       0       0       0       0       0       0       0       0       
      +0       0       0       0       0
  2109 ;;Total ram usage:        0 bytes
  2110 ;; Hardware stack levels used: 1
  2111 ;; Hardware stack levels required when called: 3
  2112 ;; This function calls:
  2113 ;;		Absolute function
  2114 ;;		_timer1_defaultHandler
  2115 ;; This function is called by:
  2116 ;;		_InterruptManager
  2117 ;; This function uses a non-reentrant model
  2118 ;;
  2119                           
  2120                           	psect	text12
  2121   0017FE                     __ptext12:
  2122                           	callstack 0
  2123   0017FE                     _TIMER1_ISR:
  2124                           	callstack 23
  2125   0017FE                     
  2126                           ;hal_timer1.c: 137:     (PIR1bits.TMR1IF = 0);
  2127   0017FE  909E               	bcf	158,0,c	;volatile
  2128   001800                     
  2129                           ;hal_timer1.c: 138:     TMR1H = (timer1_preload_value) >> 8;
  2130   001800  500A               	movf	(_timer1_preload_value+1)^0,w,c
  2131   001802  6ECF               	movwf	207,c	;volatile
  2132   001804                     
  2133                           ;hal_timer1.c: 139:     TMR1L = (uint8)(timer1_preload_value);
  2134   001804  C009  FFCE         	movff	_timer1_preload_value,4046	;volatile
  2135   001808                     
  2136                           ;hal_timer1.c: 140:     if(TIMER1_InterruptHandler){
  2137   001808  500B               	movf	_TIMER1_InterruptHandler^0,w,c
  2138   00180A  100C               	iorwf	(_TIMER1_InterruptHandler+1)^0,w,c
  2139   00180C  B4D8               	btfsc	status,2,c
  2140   00180E  EF0B  F00C         	goto	i2u241_41
  2141   001812  EF0D  F00C         	goto	i2u241_40
  2142   001816                     i2u241_41:
  2143   001816  EF19  F00C         	goto	i2l943
  2144   00181A                     i2u241_40:
  2145   00181A                     
  2146                           ;hal_timer1.c: 141:         TIMER1_InterruptHandler();
  2147   00181A  D802               	call	i2u242_48
  2148   00181C  EF19  F00C         	goto	i2u242_49
  2149   001820                     i2u242_48:
  2150   001820  0005               	push	
  2151   001822  6EFA               	movwf	pclath,c
  2152   001824  500B               	movf	_TIMER1_InterruptHandler^0,w,c
  2153   001826  6EFD               	movwf	tosl,c
  2154   001828  500C               	movf	(_TIMER1_InterruptHandler+1)^0,w,c
  2155   00182A  6EFE               	movwf	tosh,c
  2156   00182C  6AFF               	clrf	tosu,c
  2157   00182E  50FA               	movf	pclath,w,c
  2158   001830  0012               	return		;indir
  2159   001832                     i2u242_49:
  2160   001832                     i2l943:
  2161   001832  0012               	return		;funcret
  2162   001834                     __end_of_TIMER1_ISR:
  2163                           	callstack 0
  2164                           
  2165 ;; *************** function _timer1_defaultHandler *****************
  2166 ;; Defined at:
  2167 ;;		line 325 in file "Application.c"
  2168 ;; Parameters:    Size  Location     Type
  2169 ;;		None
  2170 ;; Auto vars:     Size  Location     Type
  2171 ;;		None
  2172 ;; Return value:  Size  Location     Type
  2173 ;;                  1    wreg      void 
  2174 ;; Registers used:
  2175 ;;		wreg, fsr2l, fsr2h, status,2, status,0, prodl, prodh, cstack
  2176 ;; Tracked objects:
  2177 ;;		On entry : 0/0
  2178 ;;		On exit  : 0/0
  2179 ;;		Unchanged: 0/0
  2180 ;; Data sizes:     COMRAM   BANK0   BANK1   BANK2   BANK3   BANK4   BANK5   BANK6   BANK7   BANK8   BANK9  BANK10  BANK1
      +1  BANK12  BANK13  BANK14  BANK15
  2181 ;;      Params:         0       0       0       0       0       0       0       0       0       0       0       0       
      +0       0       0       0       0
  2182 ;;      Locals:         0       0       0       0       0       0       0       0       0       0       0       0       
      +0       0       0       0       0
  2183 ;;      Temps:          0       0       0       0       0       0       0       0       0       0       0       0       
      +0       0       0       0       0
  2184 ;;      Totals:         0       0       0       0       0       0       0       0       0       0       0       0       
      +0       0       0       0       0
  2185 ;;Total ram usage:        0 bytes
  2186 ;; Hardware stack levels used: 1
  2187 ;; Hardware stack levels required when called: 2
  2188 ;; This function calls:
  2189 ;;		_led_toggle_logic
  2190 ;; This function is called by:
  2191 ;;		_TIMER1_ISR
  2192 ;; This function uses a non-reentrant model
  2193 ;;
  2194                           
  2195                           	psect	text13
  2196   001960                     __ptext13:
  2197                           	callstack 0
  2198   001960                     _timer1_defaultHandler:
  2199                           	callstack 23
  2200   001960                     
  2201                           ;Application.c: 326:     led_toggle_logic(&led2);
  2202   001960  0E58               	movlw	low _led2
  2203   001962  6E61               	movwf	led_toggle_logic@led^0,c
  2204   001964  0E00               	movlw	high _led2
  2205   001966  6E62               	movwf	(led_toggle_logic@led+1)^0,c
  2206   001968  EC5D  F00B         	call	_led_toggle_logic	;wreg free
  2207                           
  2208                           ;Application.c: 327:     led_toggle_logic(&led3);
  2209   00196C  0E57               	movlw	low _led3
  2210   00196E  6E61               	movwf	led_toggle_logic@led^0,c
  2211   001970  0E00               	movlw	high _led3
  2212   001972  6E62               	movwf	(led_toggle_logic@led+1)^0,c
  2213   001974  EC5D  F00B         	call	_led_toggle_logic	;wreg free
  2214   001978  0012               	return		;funcret
  2215   00197A                     __end_of_timer1_defaultHandler:
  2216                           	callstack 0
  2217                           
  2218 ;; *************** function _led_toggle_logic *****************
  2219 ;; Defined at:
  2220 ;;		line 70 in file "ECU_Layer/Ecu_led.c"
  2221 ;; Parameters:    Size  Location     Type
  2222 ;;  led             2    7[COMRAM] PTR const struct .
  2223 ;;		 -> led3(1), led2(1), led1(1), 
  2224 ;; Auto vars:     Size  Location     Type
  2225 ;;  pin_obj         1   10[COMRAM] struct .
  2226 ;;  ret             1    0        unsigned char 
  2227 ;; Return value:  Size  Location     Type
  2228 ;;                  1    wreg      unsigned char 
  2229 ;; Registers used:
  2230 ;;		wreg, fsr2l, fsr2h, status,2, status,0, prodl, prodh, cstack
  2231 ;; Tracked objects:
  2232 ;;		On entry : 0/0
  2233 ;;		On exit  : 0/0
  2234 ;;		Unchanged: 0/0
  2235 ;; Data sizes:     COMRAM   BANK0   BANK1   BANK2   BANK3   BANK4   BANK5   BANK6   BANK7   BANK8   BANK9  BANK10  BANK1
      +1  BANK12  BANK13  BANK14  BANK15
  2236 ;;      Params:         2       0       0       0       0       0       0       0       0       0       0       0       
      +0       0       0       0       0
  2237 ;;      Locals:         1       0       0       0       0       0       0       0       0       0       0       0       
      +0       0       0       0       0
  2238 ;;      Temps:          1       0       0       0       0       0       0       0       0       0       0       0       
      +0       0       0       0       0
  2239 ;;      Totals:         4       0       0       0       0       0       0       0       0       0       0       0       
      +0       0       0       0       0
  2240 ;;Total ram usage:        4 bytes
  2241 ;; Hardware stack levels used: 1
  2242 ;; Hardware stack levels required when called: 1
  2243 ;; This function calls:
  2244 ;;		_gpio_pin_toggle_logic
  2245 ;; This function is called by:
  2246 ;;		_timer2_defaultHandler
  2247 ;;		_timer1_defaultHandler
  2248 ;;		_timer3_defaultHandler
  2249 ;; This function uses a non-reentrant model
  2250 ;;
  2251                           
  2252                           	psect	text14
  2253   0016BA                     __ptext14:
  2254                           	callstack 0
  2255   0016BA                     _led_toggle_logic:
  2256                           	callstack 23
  2257   0016BA                     
  2258                           ;ECU_Layer/Ecu_led.c: 72:     if(led == ((void*)0)) ret = (STD_ReturnType)0x00;
  2259   0016BA  5061               	movf	led_toggle_logic@led^0,w,c
  2260   0016BC  1062               	iorwf	(led_toggle_logic@led+1)^0,w,c
  2261   0016BE  A4D8               	btfss	status,2,c
  2262   0016C0  EF64  F00B         	goto	i2u227_41
  2263   0016C4  EF66  F00B         	goto	i2u227_40
  2264   0016C8                     i2u227_41:
  2265   0016C8  EF68  F00B         	goto	i2l304
  2266   0016CC                     i2u227_40:
  2267   0016CC  EF95  F00B         	goto	i2l308
  2268   0016D0                     i2l304:
  2269                           
  2270                           ;ECU_Layer/Ecu_led.c: 74:        pin_config_t pin_obj = {
  2271   0016D0  C025  F064         	movff	led_toggle_logic@F3058,led_toggle_logic@pin_obj
  2272   0016D4  C061  FFD9         	movff	led_toggle_logic@led,fsr2l
  2273   0016D8  C062  FFDA         	movff	led_toggle_logic@led+1,fsr2h
  2274   0016DC  50DF               	movf	223,w,c
  2275   0016DE  0B0F               	andlw	15
  2276   0016E0  6E63               	movwf	??_led_toggle_logic^0,c
  2277   0016E2  5064               	movf	led_toggle_logic@pin_obj^0,w,c
  2278   0016E4  1863               	xorwf	??_led_toggle_logic^0,w,c
  2279   0016E6  0BF8               	andlw	-8
  2280   0016E8  1863               	xorwf	??_led_toggle_logic^0,w,c
  2281   0016EA  6E64               	movwf	led_toggle_logic@pin_obj^0,c
  2282   0016EC  C061  FFD9         	movff	led_toggle_logic@led,fsr2l
  2283   0016F0  C062  FFDA         	movff	led_toggle_logic@led+1,fsr2h
  2284   0016F4  38DF               	swapf	223,w,c
  2285   0016F6  0B07               	andlw	7
  2286   0016F8  6E63               	movwf	??_led_toggle_logic^0,c
  2287   0016FA  4663               	rlncf	??_led_toggle_logic^0,f,c
  2288   0016FC  4663               	rlncf	??_led_toggle_logic^0,f,c
  2289   0016FE  4663               	rlncf	??_led_toggle_logic^0,f,c
  2290   001700  5064               	movf	led_toggle_logic@pin_obj^0,w,c
  2291   001702  1863               	xorwf	??_led_toggle_logic^0,w,c
  2292   001704  0BC7               	andlw	-57
  2293   001706  1863               	xorwf	??_led_toggle_logic^0,w,c
  2294   001708  6E64               	movwf	led_toggle_logic@pin_obj^0,c
  2295   00170A  9C64               	bcf	led_toggle_logic@pin_obj^0,6,c
  2296   00170C  C061  FFD9         	movff	led_toggle_logic@led,fsr2l
  2297   001710  C062  FFDA         	movff	led_toggle_logic@led+1,fsr2h
  2298   001714  AEDF               	btfss	indf2,7,c
  2299   001716  D002               	bra	i2u228_45
  2300   001718  8E64               	bsf	led_toggle_logic@pin_obj^0,7,c
  2301   00171A  D001               	bra	i2u228_47
  2302   00171C                     i2u228_45:
  2303   00171C  9E64               	bcf	led_toggle_logic@pin_obj^0,7,c
  2304   00171E                     i2u228_47:
  2305   00171E                     
  2306                           ;ECU_Layer/Ecu_led.c: 80:         gpio_pin_toggle_logic(&pin_obj);
  2307   00171E  0E64               	movlw	low led_toggle_logic@pin_obj
  2308   001720  6E5A               	movwf	gpio_pin_toggle_logic@_pin_config_t^0,c
  2309   001722  0E00               	movlw	high led_toggle_logic@pin_obj
  2310   001724  6E5B               	movwf	(gpio_pin_toggle_logic@_pin_config_t+1)^0,c
  2311   001726  EC5E  F00A         	call	_gpio_pin_toggle_logic	;wreg free
  2312   00172A                     i2l308:
  2313   00172A  0012               	return		;funcret
  2314   00172C                     __end_of_led_toggle_logic:
  2315                           	callstack 0
  2316                           
  2317 ;; *************** function _gpio_pin_toggle_logic *****************
  2318 ;; Defined at:
  2319 ;;		line 114 in file "MCAL_Layer/hal_gpio.c"
  2320 ;; Parameters:    Size  Location     Type
  2321 ;;  _pin_config_    2    0[COMRAM] PTR const struct .
  2322 ;;		 -> led_toggle_logic@pin_obj(1), 
  2323 ;; Auto vars:     Size  Location     Type
  2324 ;;  ret             1    0        unsigned char 
  2325 ;; Return value:  Size  Location     Type
  2326 ;;                  1    wreg      unsigned char 
  2327 ;; Registers used:
  2328 ;;		wreg, fsr2l, fsr2h, status,2, status,0, prodl, prodh
  2329 ;; Tracked objects:
  2330 ;;		On entry : 0/0
  2331 ;;		On exit  : 0/0
  2332 ;;		Unchanged: 0/0
  2333 ;; Data sizes:     COMRAM   BANK0   BANK1   BANK2   BANK3   BANK4   BANK5   BANK6   BANK7   BANK8   BANK9  BANK10  BANK1
      +1  BANK12  BANK13  BANK14  BANK15
  2334 ;;      Params:         2       0       0       0       0       0       0       0       0       0       0       0       
      +0       0       0       0       0
  2335 ;;      Locals:         0       0       0       0       0       0       0       0       0       0       0       0       
      +0       0       0       0       0
  2336 ;;      Temps:          5       0       0       0       0       0       0       0       0       0       0       0       
      +0       0       0       0       0
  2337 ;;      Totals:         7       0       0       0       0       0       0       0       0       0       0       0       
      +0       0       0       0       0
  2338 ;;Total ram usage:        7 bytes
  2339 ;; Hardware stack levels used: 1
  2340 ;; This function calls:
  2341 ;;		Nothing
  2342 ;; This function is called by:
  2343 ;;		_led_toggle_logic
  2344 ;; This function uses a non-reentrant model
  2345 ;;
  2346                           
  2347                           	psect	text15
  2348   0014BC                     __ptext15:
  2349                           	callstack 0
  2350   0014BC                     _gpio_pin_toggle_logic:
  2351                           	callstack 23
  2352   0014BC                     
  2353                           ;MCAL_Layer/hal_gpio.c: 116:     if(_pin_config_t == ((void*)0) || (_pin_config_t->port 
      +                          > 5 - 1) || (_pin_config_t->pin > 8 - 1)) ret = (STD_ReturnType)0x00;
  2354   0014BC  505A               	movf	gpio_pin_toggle_logic@_pin_config_t^0,w,c
  2355   0014BE  105B               	iorwf	(gpio_pin_toggle_logic@_pin_config_t+1)^0,w,c
  2356   0014C0  B4D8               	btfsc	status,2,c
  2357   0014C2  EF65  F00A         	goto	i2u211_41
  2358   0014C6  EF67  F00A         	goto	i2u211_40
  2359   0014CA                     i2u211_41:
  2360   0014CA  EF87  F00A         	goto	i2l3499
  2361   0014CE                     i2u211_40:
  2362   0014CE  C05A  FFD9         	movff	gpio_pin_toggle_logic@_pin_config_t,fsr2l
  2363   0014D2  C05B  FFDA         	movff	gpio_pin_toggle_logic@_pin_config_t+1,fsr2h
  2364   0014D6  50DF               	movf	223,w,c
  2365   0014D8  0B07               	andlw	7
  2366   0014DA  6E5C               	movwf	??_gpio_pin_toggle_logic^0,c
  2367   0014DC  0E05               	movlw	5
  2368   0014DE  605C               	cpfslt	??_gpio_pin_toggle_logic^0,c
  2369   0014E0  EF74  F00A         	goto	i2u212_41
  2370   0014E4  EF76  F00A         	goto	i2u212_40
  2371   0014E8                     i2u212_41:
  2372   0014E8  EF87  F00A         	goto	i2l3499
  2373   0014EC                     i2u212_40:
  2374   0014EC  C05A  FFD9         	movff	gpio_pin_toggle_logic@_pin_config_t,fsr2l
  2375   0014F0  C05B  FFDA         	movff	gpio_pin_toggle_logic@_pin_config_t+1,fsr2h
  2376   0014F4  30DF               	rrcf	223,w,c
  2377   0014F6  32E8               	rrcf	wreg,f,c
  2378   0014F8  32E8               	rrcf	wreg,f,c
  2379   0014FA  0B07               	andlw	7
  2380   0014FC  6E5C               	movwf	??_gpio_pin_toggle_logic^0,c
  2381   0014FE  0E07               	movlw	7
  2382   001500  645C               	cpfsgt	??_gpio_pin_toggle_logic^0,c
  2383   001502  EF85  F00A         	goto	i2u213_41
  2384   001506  EF87  F00A         	goto	i2u213_40
  2385   00150A                     i2u213_41:
  2386   00150A  EF89  F00A         	goto	i2l3501
  2387   00150E                     i2u213_40:
  2388   00150E                     i2l3499:
  2389   00150E  EFB5  F00A         	goto	i2l564
  2390   001512                     i2l3501:
  2391                           
  2392                           ;MCAL_Layer/hal_gpio.c: 118:         (*lat_register[_pin_config_t->port] ^= (1 << _pin_c
      +                          onfig_t->pin));
  2393   001512  C05A  FFD9         	movff	gpio_pin_toggle_logic@_pin_config_t,fsr2l
  2394   001516  C05B  FFDA         	movff	gpio_pin_toggle_logic@_pin_config_t+1,fsr2h
  2395   00151A  30DF               	rrcf	223,w,c
  2396   00151C  32E8               	rrcf	wreg,f,c
  2397   00151E  32E8               	rrcf	wreg,f,c
  2398   001520  0B07               	andlw	7
  2399   001522  6E5C               	movwf	??_gpio_pin_toggle_logic^0,c
  2400   001524  0E01               	movlw	1
  2401   001526  6E5D               	movwf	(??_gpio_pin_toggle_logic+1)^0,c
  2402   001528  2A5C               	incf	??_gpio_pin_toggle_logic^0,f,c
  2403   00152A  EF99  F00A         	goto	i2u214_44
  2404   00152E                     i2u214_45:
  2405   00152E  90D8               	bcf	status,0,c
  2406   001530  365D               	rlcf	(??_gpio_pin_toggle_logic+1)^0,f,c
  2407   001532                     i2u214_44:
  2408   001532  2E5C               	decfsz	??_gpio_pin_toggle_logic^0,f,c
  2409   001534  EF97  F00A         	goto	i2u214_45
  2410   001538  C05A  FFD9         	movff	gpio_pin_toggle_logic@_pin_config_t,fsr2l
  2411   00153C  C05B  FFDA         	movff	gpio_pin_toggle_logic@_pin_config_t+1,fsr2h
  2412   001540  50DF               	movf	223,w,c
  2413   001542  0B07               	andlw	7
  2414   001544  6E5E               	movwf	(??_gpio_pin_toggle_logic+2)^0,c
  2415   001546  505E               	movf	(??_gpio_pin_toggle_logic+2)^0,w,c
  2416   001548  0D02               	mullw	2
  2417   00154A  0E31               	movlw	low _lat_register
  2418   00154C  24F3               	addwf	243,w,c
  2419   00154E  6ED9               	movwf	fsr2l,c
  2420   001550  0E00               	movlw	high _lat_register
  2421   001552  20F4               	addwfc	prodh,w,c
  2422   001554  6EDA               	movwf	fsr2h,c
  2423   001556  CFDE F05F          	movff	postinc2,??_gpio_pin_toggle_logic+3
  2424   00155A  CFDD F060          	movff	postdec2,??_gpio_pin_toggle_logic+4
  2425   00155E  C05F  FFD9         	movff	??_gpio_pin_toggle_logic+3,fsr2l
  2426   001562  C060  FFDA         	movff	??_gpio_pin_toggle_logic+4,fsr2h
  2427   001566  505D               	movf	(??_gpio_pin_toggle_logic+1)^0,w,c
  2428   001568  1ADF               	xorwf	indf2,f,c
  2429   00156A                     i2l564:
  2430   00156A  0012               	return		;funcret
  2431   00156C                     __end_of_gpio_pin_toggle_logic:
  2432                           	callstack 0
  2433                           
  2434 ;; *************** function _TIMER0_ISR *****************
  2435 ;; Defined at:
  2436 ;;		line 135 in file "MCAL_Layer/TIMER0/TIMER0.c"
  2437 ;; Parameters:    Size  Location     Type
  2438 ;;		None
  2439 ;; Auto vars:     Size  Location     Type
  2440 ;;		None
  2441 ;; Return value:  Size  Location     Type
  2442 ;;                  1    wreg      void 
  2443 ;; Registers used:
  2444 ;;		wreg, status,2, status,0, pcl, pclath, pclatu, tosl, cstack
  2445 ;; Tracked objects:
  2446 ;;		On entry : 0/0
  2447 ;;		On exit  : 0/0
  2448 ;;		Unchanged: 0/0
  2449 ;; Data sizes:     COMRAM   BANK0   BANK1   BANK2   BANK3   BANK4   BANK5   BANK6   BANK7   BANK8   BANK9  BANK10  BANK1
      +1  BANK12  BANK13  BANK14  BANK15
  2450 ;;      Params:         0       0       0       0       0       0       0       0       0       0       0       0       
      +0       0       0       0       0
  2451 ;;      Locals:         0       0       0       0       0       0       0       0       0       0       0       0       
      +0       0       0       0       0
  2452 ;;      Temps:          0       0       0       0       0       0       0       0       0       0       0       0       
      +0       0       0       0       0
  2453 ;;      Totals:         0       0       0       0       0       0       0       0       0       0       0       0       
      +0       0       0       0       0
  2454 ;;Total ram usage:        0 bytes
  2455 ;; Hardware stack levels used: 1
  2456 ;; Hardware stack levels required when called: 1
  2457 ;; This function calls:
  2458 ;;		Absolute function
  2459 ;;		_timer0_defaultHandler
  2460 ;; This function is called by:
  2461 ;;		_InterruptManager
  2462 ;; This function uses a non-reentrant model
  2463 ;;
  2464                           
  2465                           	psect	text16
  2466   001834                     __ptext16:
  2467                           	callstack 0
  2468   001834                     _TIMER0_ISR:
  2469                           	callstack 25
  2470   001834                     
  2471                           ;MCAL_Layer/TIMER0/TIMER0.c: 136:     (INTCONbits.TMR0IF = 0);
  2472   001834  94F2               	bcf	242,2,c	;volatile
  2473   001836                     
  2474                           ;MCAL_Layer/TIMER0/TIMER0.c: 137:     TMR0H = (timer0_preload) >> 8;
  2475   001836  5010               	movf	(_timer0_preload+1)^0,w,c
  2476   001838  6ED7               	movwf	215,c	;volatile
  2477   00183A                     
  2478                           ;MCAL_Layer/TIMER0/TIMER0.c: 138:     TMR0L = (uint8)(timer0_preload);
  2479   00183A  C00F  FFD6         	movff	_timer0_preload,4054	;volatile
  2480   00183E                     
  2481                           ;MCAL_Layer/TIMER0/TIMER0.c: 139:     if(TIMER0_InterruptHandler){
  2482   00183E  500D               	movf	_TIMER0_InterruptHandler^0,w,c
  2483   001840  100E               	iorwf	(_TIMER0_InterruptHandler+1)^0,w,c
  2484   001842  B4D8               	btfsc	status,2,c
  2485   001844  EF26  F00C         	goto	i2u40_41
  2486   001848  EF28  F00C         	goto	i2u40_40
  2487   00184C                     i2u40_41:
  2488   00184C  EF34  F00C         	goto	i2l882
  2489   001850                     i2u40_40:
  2490   001850                     
  2491                           ;MCAL_Layer/TIMER0/TIMER0.c: 140:         TIMER0_InterruptHandler();
  2492   001850  D802               	call	i2u41_48
  2493   001852  EF34  F00C         	goto	i2u41_49
  2494   001856                     i2u41_48:
  2495   001856  0005               	push	
  2496   001858  6EFA               	movwf	pclath,c
  2497   00185A  500D               	movf	_TIMER0_InterruptHandler^0,w,c
  2498   00185C  6EFD               	movwf	tosl,c
  2499   00185E  500E               	movf	(_TIMER0_InterruptHandler+1)^0,w,c
  2500   001860  6EFE               	movwf	tosh,c
  2501   001862  6AFF               	clrf	tosu,c
  2502   001864  50FA               	movf	pclath,w,c
  2503   001866  0012               	return		;indir
  2504   001868                     i2u41_49:
  2505   001868                     i2l882:
  2506   001868  0012               	return		;funcret
  2507   00186A                     __end_of_TIMER0_ISR:
  2508                           	callstack 0
  2509                           
  2510 ;; *************** function _timer0_defaultHandler *****************
  2511 ;; Defined at:
  2512 ;;		line 291 in file "Application.c"
  2513 ;; Parameters:    Size  Location     Type
  2514 ;;		None
  2515 ;; Auto vars:     Size  Location     Type
  2516 ;;		None
  2517 ;; Return value:  Size  Location     Type
  2518 ;;                  1    wreg      void 
  2519 ;; Registers used:
  2520 ;;		status,2, status,0
  2521 ;; Tracked objects:
  2522 ;;		On entry : 0/0
  2523 ;;		On exit  : 0/0
  2524 ;;		Unchanged: 0/0
  2525 ;; Data sizes:     COMRAM   BANK0   BANK1   BANK2   BANK3   BANK4   BANK5   BANK6   BANK7   BANK8   BANK9  BANK10  BANK1
      +1  BANK12  BANK13  BANK14  BANK15
  2526 ;;      Params:         0       0       0       0       0       0       0       0       0       0       0       0       
      +0       0       0       0       0
  2527 ;;      Locals:         0       0       0       0       0       0       0       0       0       0       0       0       
      +0       0       0       0       0
  2528 ;;      Temps:          0       0       0       0       0       0       0       0       0       0       0       0       
      +0       0       0       0       0
  2529 ;;      Totals:         0       0       0       0       0       0       0       0       0       0       0       0       
      +0       0       0       0       0
  2530 ;;Total ram usage:        0 bytes
  2531 ;; Hardware stack levels used: 1
  2532 ;; This function calls:
  2533 ;;		Nothing
  2534 ;; This function is called by:
  2535 ;;		_TIMER0_ISR
  2536 ;; This function uses a non-reentrant model
  2537 ;;
  2538                           
  2539                           	psect	text17
  2540   001992                     __ptext17:
  2541                           	callstack 0
  2542   001992                     _timer0_defaultHandler:
  2543                           	callstack 25
  2544   001992                     
  2545                           ;Application.c: 292:     counter_value++;
  2546   001992  4A05               	infsnz	_counter_value^0,f,c	;volatile
  2547   001994  2A06               	incf	(_counter_value+1)^0,f,c	;volatile
  2548   001996  0012               	return		;funcret
  2549   001998                     __end_of_timer0_defaultHandler:
  2550                           	callstack 0
  2551                           
  2552 ;; *************** function _RB7_ISR *****************
  2553 ;; Defined at:
  2554 ;;		line 141 in file "MCAL_Layer/Interrupt/hal_extrenal_interrupt.c"
  2555 ;; Parameters:    Size  Location     Type
  2556 ;;		None
  2557 ;; Auto vars:     Size  Location     Type
  2558 ;;		None
  2559 ;; Return value:  Size  Location     Type
  2560 ;;                  1    wreg      void 
  2561 ;; Registers used:
  2562 ;;		None
  2563 ;; Tracked objects:
  2564 ;;		On entry : 0/0
  2565 ;;		On exit  : 0/0
  2566 ;;		Unchanged: 0/0
  2567 ;; Data sizes:     COMRAM   BANK0   BANK1   BANK2   BANK3   BANK4   BANK5   BANK6   BANK7   BANK8   BANK9  BANK10  BANK1
      +1  BANK12  BANK13  BANK14  BANK15
  2568 ;;      Params:         0       0       0       0       0       0       0       0       0       0       0       0       
      +0       0       0       0       0
  2569 ;;      Locals:         0       0       0       0       0       0       0       0       0       0       0       0       
      +0       0       0       0       0
  2570 ;;      Temps:          0       0       0       0       0       0       0       0       0       0       0       0       
      +0       0       0       0       0
  2571 ;;      Totals:         0       0       0       0       0       0       0       0       0       0       0       0       
      +0       0       0       0       0
  2572 ;;Total ram usage:        0 bytes
  2573 ;; Hardware stack levels used: 1
  2574 ;; This function calls:
  2575 ;;		Nothing
  2576 ;; This function is called by:
  2577 ;;		_InterruptManager
  2578 ;; This function uses a non-reentrant model
  2579 ;;
  2580                           
  2581                           	psect	text18
  2582   001998                     __ptext18:
  2583                           	callstack 0
  2584   001998                     _RB7_ISR:
  2585                           	callstack 26
  2586   001998                     
  2587                           ;MCAL_Layer/Interrupt/hal_extrenal_interrupt.c: 143:     (INTCONbits.RBIF = 0);
  2588   001998  90F2               	bcf	242,0,c	;volatile
  2589   00199A  0012               	return		;funcret
  2590   00199C                     __end_of_RB7_ISR:
  2591                           	callstack 0
  2592                           
  2593 ;; *************** function _RB6_ISR *****************
  2594 ;; Defined at:
  2595 ;;		line 130 in file "MCAL_Layer/Interrupt/hal_extrenal_interrupt.c"
  2596 ;; Parameters:    Size  Location     Type
  2597 ;;		None
  2598 ;; Auto vars:     Size  Location     Type
  2599 ;;		None
  2600 ;; Return value:  Size  Location     Type
  2601 ;;                  1    wreg      void 
  2602 ;; Registers used:
  2603 ;;		None
  2604 ;; Tracked objects:
  2605 ;;		On entry : 0/0
  2606 ;;		On exit  : 0/0
  2607 ;;		Unchanged: 0/0
  2608 ;; Data sizes:     COMRAM   BANK0   BANK1   BANK2   BANK3   BANK4   BANK5   BANK6   BANK7   BANK8   BANK9  BANK10  BANK1
      +1  BANK12  BANK13  BANK14  BANK15
  2609 ;;      Params:         0       0       0       0       0       0       0       0       0       0       0       0       
      +0       0       0       0       0
  2610 ;;      Locals:         0       0       0       0       0       0       0       0       0       0       0       0       
      +0       0       0       0       0
  2611 ;;      Temps:          0       0       0       0       0       0       0       0       0       0       0       0       
      +0       0       0       0       0
  2612 ;;      Totals:         0       0       0       0       0       0       0       0       0       0       0       0       
      +0       0       0       0       0
  2613 ;;Total ram usage:        0 bytes
  2614 ;; Hardware stack levels used: 1
  2615 ;; This function calls:
  2616 ;;		Nothing
  2617 ;; This function is called by:
  2618 ;;		_InterruptManager
  2619 ;; This function uses a non-reentrant model
  2620 ;;
  2621                           
  2622                           	psect	text19
  2623   00199C                     __ptext19:
  2624                           	callstack 0
  2625   00199C                     _RB6_ISR:
  2626                           	callstack 26
  2627   00199C                     
  2628                           ;MCAL_Layer/Interrupt/hal_extrenal_interrupt.c: 132:     (INTCONbits.RBIF = 0);
  2629   00199C  90F2               	bcf	242,0,c	;volatile
  2630   00199E  0012               	return		;funcret
  2631   0019A0                     __end_of_RB6_ISR:
  2632                           	callstack 0
  2633                           
  2634 ;; *************** function _RB5_ISR *****************
  2635 ;; Defined at:
  2636 ;;		line 119 in file "MCAL_Layer/Interrupt/hal_extrenal_interrupt.c"
  2637 ;; Parameters:    Size  Location     Type
  2638 ;;		None
  2639 ;; Auto vars:     Size  Location     Type
  2640 ;;		None
  2641 ;; Return value:  Size  Location     Type
  2642 ;;                  1    wreg      void 
  2643 ;; Registers used:
  2644 ;;		None
  2645 ;; Tracked objects:
  2646 ;;		On entry : 0/0
  2647 ;;		On exit  : 0/0
  2648 ;;		Unchanged: 0/0
  2649 ;; Data sizes:     COMRAM   BANK0   BANK1   BANK2   BANK3   BANK4   BANK5   BANK6   BANK7   BANK8   BANK9  BANK10  BANK1
      +1  BANK12  BANK13  BANK14  BANK15
  2650 ;;      Params:         0       0       0       0       0       0       0       0       0       0       0       0       
      +0       0       0       0       0
  2651 ;;      Locals:         0       0       0       0       0       0       0       0       0       0       0       0       
      +0       0       0       0       0
  2652 ;;      Temps:          0       0       0       0       0       0       0       0       0       0       0       0       
      +0       0       0       0       0
  2653 ;;      Totals:         0       0       0       0       0       0       0       0       0       0       0       0       
      +0       0       0       0       0
  2654 ;;Total ram usage:        0 bytes
  2655 ;; Hardware stack levels used: 1
  2656 ;; This function calls:
  2657 ;;		Nothing
  2658 ;; This function is called by:
  2659 ;;		_InterruptManager
  2660 ;; This function uses a non-reentrant model
  2661 ;;
  2662                           
  2663                           	psect	text20
  2664   0019A0                     __ptext20:
  2665                           	callstack 0
  2666   0019A0                     _RB5_ISR:
  2667                           	callstack 26
  2668   0019A0                     
  2669                           ;MCAL_Layer/Interrupt/hal_extrenal_interrupt.c: 121:     (INTCONbits.RBIF = 0);
  2670   0019A0  90F2               	bcf	242,0,c	;volatile
  2671   0019A2  0012               	return		;funcret
  2672   0019A4                     __end_of_RB5_ISR:
  2673                           	callstack 0
  2674                           
  2675 ;; *************** function _RB4_ISR *****************
  2676 ;; Defined at:
  2677 ;;		line 109 in file "MCAL_Layer/Interrupt/hal_extrenal_interrupt.c"
  2678 ;; Parameters:    Size  Location     Type
  2679 ;;		None
  2680 ;; Auto vars:     Size  Location     Type
  2681 ;;		None
  2682 ;; Return value:  Size  Location     Type
  2683 ;;                  1    wreg      void 
  2684 ;; Registers used:
  2685 ;;		None
  2686 ;; Tracked objects:
  2687 ;;		On entry : 0/0
  2688 ;;		On exit  : 0/0
  2689 ;;		Unchanged: 0/0
  2690 ;; Data sizes:     COMRAM   BANK0   BANK1   BANK2   BANK3   BANK4   BANK5   BANK6   BANK7   BANK8   BANK9  BANK10  BANK1
      +1  BANK12  BANK13  BANK14  BANK15
  2691 ;;      Params:         0       0       0       0       0       0       0       0       0       0       0       0       
      +0       0       0       0       0
  2692 ;;      Locals:         0       0       0       0       0       0       0       0       0       0       0       0       
      +0       0       0       0       0
  2693 ;;      Temps:          0       0       0       0       0       0       0       0       0       0       0       0       
      +0       0       0       0       0
  2694 ;;      Totals:         0       0       0       0       0       0       0       0       0       0       0       0       
      +0       0       0       0       0
  2695 ;;Total ram usage:        0 bytes
  2696 ;; Hardware stack levels used: 1
  2697 ;; This function calls:
  2698 ;;		Nothing
  2699 ;; This function is called by:
  2700 ;;		_InterruptManager
  2701 ;; This function uses a non-reentrant model
  2702 ;;
  2703                           
  2704                           	psect	text21
  2705   0019A4                     __ptext21:
  2706                           	callstack 0
  2707   0019A4                     _RB4_ISR:
  2708                           	callstack 26
  2709   0019A4                     
  2710                           ;MCAL_Layer/Interrupt/hal_extrenal_interrupt.c: 111:     (INTCONbits.RBIF = 0);
  2711   0019A4  90F2               	bcf	242,0,c	;volatile
  2712   0019A6  0012               	return		;funcret
  2713   0019A8                     __end_of_RB4_ISR:
  2714                           	callstack 0
  2715                           
  2716 ;; *************** function _INT2_ISR *****************
  2717 ;; Defined at:
  2718 ;;		line 99 in file "MCAL_Layer/Interrupt/hal_extrenal_interrupt.c"
  2719 ;; Parameters:    Size  Location     Type
  2720 ;;		None
  2721 ;; Auto vars:     Size  Location     Type
  2722 ;;		None
  2723 ;; Return value:  Size  Location     Type
  2724 ;;                  1    wreg      void 
  2725 ;; Registers used:
  2726 ;;		None
  2727 ;; Tracked objects:
  2728 ;;		On entry : 0/0
  2729 ;;		On exit  : 0/0
  2730 ;;		Unchanged: 0/0
  2731 ;; Data sizes:     COMRAM   BANK0   BANK1   BANK2   BANK3   BANK4   BANK5   BANK6   BANK7   BANK8   BANK9  BANK10  BANK1
      +1  BANK12  BANK13  BANK14  BANK15
  2732 ;;      Params:         0       0       0       0       0       0       0       0       0       0       0       0       
      +0       0       0       0       0
  2733 ;;      Locals:         0       0       0       0       0       0       0       0       0       0       0       0       
      +0       0       0       0       0
  2734 ;;      Temps:          0       0       0       0       0       0       0       0       0       0       0       0       
      +0       0       0       0       0
  2735 ;;      Totals:         0       0       0       0       0       0       0       0       0       0       0       0       
      +0       0       0       0       0
  2736 ;;Total ram usage:        0 bytes
  2737 ;; Hardware stack levels used: 1
  2738 ;; This function calls:
  2739 ;;		Nothing
  2740 ;; This function is called by:
  2741 ;;		_InterruptManager
  2742 ;; This function uses a non-reentrant model
  2743 ;;
  2744                           
  2745                           	psect	text22
  2746   0019A8                     __ptext22:
  2747                           	callstack 0
  2748   0019A8                     _INT2_ISR:
  2749                           	callstack 26
  2750   0019A8                     
  2751                           ;MCAL_Layer/Interrupt/hal_extrenal_interrupt.c: 101:     (INTCON3bits.INT2F = 0);
  2752   0019A8  92F0               	bcf	240,1,c	;volatile
  2753   0019AA  0012               	return		;funcret
  2754   0019AC                     __end_of_INT2_ISR:
  2755                           	callstack 0
  2756                           
  2757 ;; *************** function _INT1_ISR *****************
  2758 ;; Defined at:
  2759 ;;		line 88 in file "MCAL_Layer/Interrupt/hal_extrenal_interrupt.c"
  2760 ;; Parameters:    Size  Location     Type
  2761 ;;		None
  2762 ;; Auto vars:     Size  Location     Type
  2763 ;;		None
  2764 ;; Return value:  Size  Location     Type
  2765 ;;                  1    wreg      void 
  2766 ;; Registers used:
  2767 ;;		None
  2768 ;; Tracked objects:
  2769 ;;		On entry : 0/0
  2770 ;;		On exit  : 0/0
  2771 ;;		Unchanged: 0/0
  2772 ;; Data sizes:     COMRAM   BANK0   BANK1   BANK2   BANK3   BANK4   BANK5   BANK6   BANK7   BANK8   BANK9  BANK10  BANK1
      +1  BANK12  BANK13  BANK14  BANK15
  2773 ;;      Params:         0       0       0       0       0       0       0       0       0       0       0       0       
      +0       0       0       0       0
  2774 ;;      Locals:         0       0       0       0       0       0       0       0       0       0       0       0       
      +0       0       0       0       0
  2775 ;;      Temps:          0       0       0       0       0       0       0       0       0       0       0       0       
      +0       0       0       0       0
  2776 ;;      Totals:         0       0       0       0       0       0       0       0       0       0       0       0       
      +0       0       0       0       0
  2777 ;;Total ram usage:        0 bytes
  2778 ;; Hardware stack levels used: 1
  2779 ;; This function calls:
  2780 ;;		Nothing
  2781 ;; This function is called by:
  2782 ;;		_InterruptManager
  2783 ;; This function uses a non-reentrant model
  2784 ;;
  2785                           
  2786                           	psect	text23
  2787   0019AC                     __ptext23:
  2788                           	callstack 0
  2789   0019AC                     _INT1_ISR:
  2790                           	callstack 26
  2791   0019AC                     
  2792                           ;MCAL_Layer/Interrupt/hal_extrenal_interrupt.c: 90:     (INTCON3bits.INT1F = 0);
  2793   0019AC  90F0               	bcf	240,0,c	;volatile
  2794   0019AE  0012               	return		;funcret
  2795   0019B0                     __end_of_INT1_ISR:
  2796                           	callstack 0
  2797                           
  2798 ;; *************** function _INT0_ISR *****************
  2799 ;; Defined at:
  2800 ;;		line 77 in file "MCAL_Layer/Interrupt/hal_extrenal_interrupt.c"
  2801 ;; Parameters:    Size  Location     Type
  2802 ;;		None
  2803 ;; Auto vars:     Size  Location     Type
  2804 ;;		None
  2805 ;; Return value:  Size  Location     Type
  2806 ;;                  1    wreg      void 
  2807 ;; Registers used:
  2808 ;;		None
  2809 ;; Tracked objects:
  2810 ;;		On entry : 0/0
  2811 ;;		On exit  : 0/0
  2812 ;;		Unchanged: 0/0
  2813 ;; Data sizes:     COMRAM   BANK0   BANK1   BANK2   BANK3   BANK4   BANK5   BANK6   BANK7   BANK8   BANK9  BANK10  BANK1
      +1  BANK12  BANK13  BANK14  BANK15
  2814 ;;      Params:         0       0       0       0       0       0       0       0       0       0       0       0       
      +0       0       0       0       0
  2815 ;;      Locals:         0       0       0       0       0       0       0       0       0       0       0       0       
      +0       0       0       0       0
  2816 ;;      Temps:          0       0       0       0       0       0       0       0       0       0       0       0       
      +0       0       0       0       0
  2817 ;;      Totals:         0       0       0       0       0       0       0       0       0       0       0       0       
      +0       0       0       0       0
  2818 ;;Total ram usage:        0 bytes
  2819 ;; Hardware stack levels used: 1
  2820 ;; This function calls:
  2821 ;;		Nothing
  2822 ;; This function is called by:
  2823 ;;		_InterruptManager
  2824 ;; This function uses a non-reentrant model
  2825 ;;
  2826                           
  2827                           	psect	text24
  2828   0019B0                     __ptext24:
  2829                           	callstack 0
  2830   0019B0                     _INT0_ISR:
  2831                           	callstack 26
  2832   0019B0                     
  2833                           ;MCAL_Layer/Interrupt/hal_extrenal_interrupt.c: 79:     (INTCONbits.INT0IF = 0);
  2834   0019B0  92F2               	bcf	242,1,c	;volatile
  2835   0019B2  0012               	return		;funcret
  2836   0019B4                     __end_of_INT0_ISR:
  2837                           	callstack 0
  2838                           
  2839 ;; *************** function _ADC_ISR *****************
  2840 ;; Defined at:
  2841 ;;		line 268 in file "MCAL_Layer/ADC/hal_adc.c"
  2842 ;; Parameters:    Size  Location     Type
  2843 ;;		None
  2844 ;; Auto vars:     Size  Location     Type
  2845 ;;		None
  2846 ;; Return value:  Size  Location     Type
  2847 ;;                  1    wreg      void 
  2848 ;; Registers used:
  2849 ;;		None
  2850 ;; Tracked objects:
  2851 ;;		On entry : 0/0
  2852 ;;		On exit  : 0/0
  2853 ;;		Unchanged: 0/0
  2854 ;; Data sizes:     COMRAM   BANK0   BANK1   BANK2   BANK3   BANK4   BANK5   BANK6   BANK7   BANK8   BANK9  BANK10  BANK1
      +1  BANK12  BANK13  BANK14  BANK15
  2855 ;;      Params:         0       0       0       0       0       0       0       0       0       0       0       0       
      +0       0       0       0       0
  2856 ;;      Locals:         0       0       0       0       0       0       0       0       0       0       0       0       
      +0       0       0       0       0
  2857 ;;      Temps:          0       0       0       0       0       0       0       0       0       0       0       0       
      +0       0       0       0       0
  2858 ;;      Totals:         0       0       0       0       0       0       0       0       0       0       0       0       
      +0       0       0       0       0
  2859 ;;Total ram usage:        0 bytes
  2860 ;; Hardware stack levels used: 1
  2861 ;; This function calls:
  2862 ;;		Nothing
  2863 ;; This function is called by:
  2864 ;;		_InterruptManager
  2865 ;; This function uses a non-reentrant model
  2866 ;;
  2867                           
  2868                           	psect	text25
  2869   0019B4                     __ptext25:
  2870                           	callstack 0
  2871   0019B4                     _ADC_ISR:
  2872                           	callstack 26
  2873   0019B4                     
  2874                           ;MCAL_Layer/ADC/hal_adc.c: 269:     (PIR1bits.ADIF = 0);
  2875   0019B4  9C9E               	bcf	158,6,c	;volatile
  2876   0019B6  0012               	return		;funcret
  2877   0019B8                     __end_of_ADC_ISR:
  2878                           	callstack 0
  2879                           
  2880                           	psect	text26
  2881   000000                     __ptext26:
  2882                           	callstack 0
  2883   000000                     
  2884                           	psect	rparam
  2885   000000                     
  2886                           	psect	temp
  2887   00006E                     btemp:
  2888                           	callstack 0
  2889   00006E                     	ds	1
  2890   000000                     int$flags	set	btemp
  2891   000000                     wtemp8	set	btemp+1
  2892   000000                     ttemp5	set	btemp+1
  2893   000000                     ttemp6	set	btemp+4
  2894   000000                     ttemp7	set	btemp+8
  2895                           
  2896                           	psect	idloc
  2897                           
  2898                           ;Config register IDLOC0 @ 0x200000
  2899                           ;	unspecified, using default values
  2900   200000                     	org	2097152
  2901   200000  FF                 	db	255
  2902                           
  2903                           ;Config register IDLOC1 @ 0x200001
  2904                           ;	unspecified, using default values
  2905   200001                     	org	2097153
  2906   200001  FF                 	db	255
  2907                           
  2908                           ;Config register IDLOC2 @ 0x200002
  2909                           ;	unspecified, using default values
  2910   200002                     	org	2097154
  2911   200002  FF                 	db	255
  2912                           
  2913                           ;Config register IDLOC3 @ 0x200003
  2914                           ;	unspecified, using default values
  2915   200003                     	org	2097155
  2916   200003  FF                 	db	255
  2917                           
  2918                           ;Config register IDLOC4 @ 0x200004
  2919                           ;	unspecified, using default values
  2920   200004                     	org	2097156
  2921   200004  FF                 	db	255
  2922                           
  2923                           ;Config register IDLOC5 @ 0x200005
  2924                           ;	unspecified, using default values
  2925   200005                     	org	2097157
  2926   200005  FF                 	db	255
  2927                           
  2928                           ;Config register IDLOC6 @ 0x200006
  2929                           ;	unspecified, using default values
  2930   200006                     	org	2097158
  2931   200006  FF                 	db	255
  2932                           
  2933                           ;Config register IDLOC7 @ 0x200007
  2934                           ;	unspecified, using default values
  2935   200007                     	org	2097159
  2936   200007  FF                 	db	255
  2937                           
  2938                           	psect	config
  2939                           
  2940                           ; Padding undefined space
  2941   300000                     	org	3145728
  2942   300000  FF                 	db	255
  2943                           
  2944                           ;Config register CONFIG1H @ 0x300001
  2945                           ;	Oscillator Selection bits
  2946                           ;	OSC = RCIO6, External RC oscillator, port function on RA6
  2947                           ;	Fail-Safe Clock Monitor Enable bit
  2948                           ;	FCMEN = OFF, Fail-Safe Clock Monitor disabled
  2949                           ;	Internal/External Oscillator Switchover bit
  2950                           ;	IESO = OFF, Oscillator Switchover mode disabled
  2951   300001                     	org	3145729
  2952   300001  07                 	db	7
  2953                           
  2954                           ;Config register CONFIG2L @ 0x300002
  2955                           ;	Power-up Timer Enable bit
  2956                           ;	PWRT = OFF, PWRT disabled
  2957                           ;	Brown-out Reset Enable bits
  2958                           ;	BOREN = SBORDIS, Brown-out Reset enabled in hardware only (SBOREN is disabled)
  2959                           ;	Brown Out Reset Voltage bits
  2960                           ;	BORV = 3, Minimum setting
  2961   300002                     	org	3145730
  2962   300002  1F                 	db	31
  2963                           
  2964                           ;Config register CONFIG2H @ 0x300003
  2965                           ;	Watchdog Timer Enable bit
  2966                           ;	WDT = ON, WDT enabled
  2967                           ;	Watchdog Timer Postscale Select bits
  2968                           ;	WDTPS = 32768, 1:32768
  2969   300003                     	org	3145731
  2970   300003  1F                 	db	31
  2971                           
  2972                           ; Padding undefined space
  2973   300004                     	org	3145732
  2974   300004  FF                 	db	255
  2975                           
  2976                           ;Config register CONFIG3H @ 0x300005
  2977                           ;	CCP2 MUX bit
  2978                           ;	CCP2MX = PORTC, CCP2 input/output is multiplexed with RC1
  2979                           ;	PORTB A/D Enable bit
  2980                           ;	PBADEN = OFF, PORTB<4:0> pins are configured as digital I/O on Reset
  2981                           ;	Low-Power Timer1 Oscillator Enable bit
  2982                           ;	LPT1OSC = OFF, Timer1 configured for higher power operation
  2983                           ;	MCLR Pin Enable bit
  2984                           ;	MCLRE = ON, MCLR pin enabled; RE3 input pin disabled
  2985   300005                     	org	3145733
  2986   300005  81                 	db	129
  2987                           
  2988                           ;Config register CONFIG4L @ 0x300006
  2989                           ;	Stack Full/Underflow Reset Enable bit
  2990                           ;	STVREN = ON, Stack full/underflow will cause Reset
  2991                           ;	Single-Supply ICSP Enable bit
  2992                           ;	LVP = ON, Single-Supply ICSP enabled
  2993                           ;	Extended Instruction Set Enable bit
  2994                           ;	XINST = OFF, Instruction set extension and Indexed Addressing mode disabled (Legacy mo
      +                          de)
  2995                           ;	Background Debugger Enable bit
  2996                           ;	DEBUG = 0x1, unprogrammed default
  2997   300006                     	org	3145734
  2998   300006  85                 	db	133
  2999                           
  3000                           ; Padding undefined space
  3001   300007                     	org	3145735
  3002   300007  FF                 	db	255
  3003                           
  3004                           ;Config register CONFIG5L @ 0x300008
  3005                           ;	Code Protection bit
  3006                           ;	CP0 = OFF, Block 0 (000800-003FFFh) not code-protected
  3007                           ;	Code Protection bit
  3008                           ;	CP1 = OFF, Block 1 (004000-007FFFh) not code-protected
  3009                           ;	Code Protection bit
  3010                           ;	CP2 = OFF, Block 2 (008000-00BFFFh) not code-protected
  3011                           ;	Code Protection bit
  3012                           ;	CP3 = OFF, Block 3 (00C000-00FFFFh) not code-protected
  3013   300008                     	org	3145736
  3014   300008  0F                 	db	15
  3015                           
  3016                           ;Config register CONFIG5H @ 0x300009
  3017                           ;	Boot Block Code Protection bit
  3018                           ;	CPB = OFF, Boot block (000000-0007FFh) not code-protected
  3019                           ;	Data EEPROM Code Protection bit
  3020                           ;	CPD = OFF, Data EEPROM not code-protected
  3021   300009                     	org	3145737
  3022   300009  C0                 	db	192
  3023                           
  3024                           ;Config register CONFIG6L @ 0x30000A
  3025                           ;	Write Protection bit
  3026                           ;	WRT0 = OFF, Block 0 (000800-003FFFh) not write-protected
  3027                           ;	Write Protection bit
  3028                           ;	WRT1 = OFF, Block 1 (004000-007FFFh) not write-protected
  3029                           ;	Write Protection bit
  3030                           ;	WRT2 = OFF, Block 2 (008000-00BFFFh) not write-protected
  3031                           ;	Write Protection bit
  3032                           ;	WRT3 = OFF, Block 3 (00C000-00FFFFh) not write-protected
  3033   30000A                     	org	3145738
  3034   30000A  0F                 	db	15
  3035                           
  3036                           ;Config register CONFIG6H @ 0x30000B
  3037                           ;	Configuration Register Write Protection bit
  3038                           ;	WRTC = OFF, Configuration registers (300000-3000FFh) not write-protected
  3039                           ;	Boot Block Write Protection bit
  3040                           ;	WRTB = OFF, Boot Block (000000-0007FFh) not write-protected
  3041                           ;	Data EEPROM Write Protection bit
  3042                           ;	WRTD = OFF, Data EEPROM not write-protected
  3043   30000B                     	org	3145739
  3044   30000B  E0                 	db	224
  3045                           
  3046                           ;Config register CONFIG7L @ 0x30000C
  3047                           ;	Table Read Protection bit
  3048                           ;	EBTR0 = OFF, Block 0 (000800-003FFFh) not protected from table reads executed in other
      +                           blocks
  3049                           ;	Table Read Protection bit
  3050                           ;	EBTR1 = OFF, Block 1 (004000-007FFFh) not protected from table reads executed in other
      +                           blocks
  3051                           ;	Table Read Protection bit
  3052                           ;	EBTR2 = OFF, Block 2 (008000-00BFFFh) not protected from table reads executed in other
      +                           blocks
  3053                           ;	Table Read Protection bit
  3054                           ;	EBTR3 = OFF, Block 3 (00C000-00FFFFh) not protected from table reads executed in other
      +                           blocks
  3055   30000C                     	org	3145740
  3056   30000C  0F                 	db	15
  3057                           
  3058                           ;Config register CONFIG7H @ 0x30000D
  3059                           ;	Boot Block Table Read Protection bit
  3060                           ;	EBTRB = OFF, Boot Block (000000-0007FFh) not protected from table reads executed in ot
      +                          her blocks
  3061   30000D                     	org	3145741
  3062   30000D  40                 	db	64
  3063                           tosu	equ	0xFFF
  3064                           tosh	equ	0xFFE
  3065                           tosl	equ	0xFFD
  3066                           stkptr	equ	0xFFC
  3067                           pclatu	equ	0xFFB
  3068                           pclath	equ	0xFFA
  3069                           pcl	equ	0xFF9
  3070                           tblptru	equ	0xFF8
  3071                           tblptrh	equ	0xFF7
  3072                           tblptrl	equ	0xFF6
  3073                           tablat	equ	0xFF5
  3074                           prodh	equ	0xFF4
  3075                           prodl	equ	0xFF3
  3076                           indf0	equ	0xFEF
  3077                           postinc0	equ	0xFEE
  3078                           postdec0	equ	0xFED
  3079                           preinc0	equ	0xFEC
  3080                           plusw0	equ	0xFEB
  3081                           fsr0h	equ	0xFEA
  3082                           fsr0l	equ	0xFE9
  3083                           wreg	equ	0xFE8
  3084                           indf1	equ	0xFE7
  3085                           postinc1	equ	0xFE6
  3086                           postdec1	equ	0xFE5
  3087                           preinc1	equ	0xFE4
  3088                           plusw1	equ	0xFE3
  3089                           fsr1h	equ	0xFE2
  3090                           fsr1l	equ	0xFE1
  3091                           bsr	equ	0xFE0
  3092                           indf2	equ	0xFDF
  3093                           postinc2	equ	0xFDE
  3094                           postdec2	equ	0xFDD
  3095                           preinc2	equ	0xFDC
  3096                           plusw2	equ	0xFDB
  3097                           fsr2h	equ	0xFDA
  3098                           fsr2l	equ	0xFD9
  3099                           status	equ	0xFD8

Data Sizes:
    Strings     3
    Constant    16
    Data        64
    BSS         48
    Persistent  0
    Stack       0

Auto Spaces:
    Space          Size  Autos    Used
    COMRAM          126     20     109
    BANK0           128     12      35
    BANK1           256      0       0
    BANK2           256      0       0
    BANK3           256      0       0
    BANK4           256      0       0
    BANK5           256      0       0
    BANK6           256      0       0
    BANK7           256      0       0
    BANK8           256      0       0
    BANK9           256      0       0
    BANK10          256      0       0
    BANK11          256      0       0
    BANK12          256      0       0
    BANK13          256      0       0
    BANK14          256      0       0
    BANK15          128      0       0

Pointer List with Targets:

    vfprintf$2	PTR PTR void  size(2) Largest target is 2
		 -> sprintf@ap(COMRAM[2]), 

    vfprintf$1	PTR const unsigned char  size(2) Largest target is 3
		 -> STR_3(CODE[3]), STR_2(CODE[3]), STR_1(CODE[3]), 

    vfprintf$0	PTR struct _IO_FILE size(2) Largest target is 11
		 -> sprintf@f(COMRAM[11]), 

    S3227$source	PTR const unsigned char  size(2) Largest target is 0

    f...source	PTR const unsigned char  size(2) Largest target is 0

    S3227$buffer	PTR unsigned char  size(2) Largest target is 0

    f...buffer	PTR unsigned char  size(2) Largest target is 0

    Timer3_mode_select@_timer.TIMER3_InterruptHandler	PTR FTN()void  size(2) Largest target is 1
		 -> timer3_defaultHandler(), 

    Timer3_mode_select@_timer	PTR const struct . size(2) Largest target is 6
		 -> timer3_obj(COMRAM[6]), 

    TIMER3_InterruptHandler	PTR FTN()void  size(2) Largest target is 1
		 -> timer3_defaultHandler(), Absolute function(), 

    timer3_init@_timer.TIMER3_InterruptHandler	PTR FTN()void  size(2) Largest target is 1
		 -> timer3_defaultHandler(), 

    timer3_init@_timer	PTR const struct . size(2) Largest target is 6
		 -> timer3_obj(COMRAM[6]), 

    counter1_obj.TIMER1_InterruptHandler	PTR FTN()void  size(2) Largest target is 1
		 -> timer1_defaultHandler(), Absolute function(), 

    S2504$TIMER3_InterruptHandler	PTR FTN()void  size(2) Largest target is 1
		 -> timer3_defaultHandler(), 

    timer3_obj.TIMER3_InterruptHandler	PTR FTN()void  size(2) Largest target is 1
		 -> timer3_defaultHandler(), 

    timer1_obj.TIMER1_InterruptHandler	PTR FTN()void  size(2) Largest target is 1
		 -> timer1_defaultHandler(), Absolute function(), 

    timer0_obj.TIMER0_InterruptHandler	PTR FTN()void  size(2) Largest target is 1
		 -> timer0_defaultHandler(), 

    timer2_obj.TIMER2_InterruptHandler	PTR FTN()void  size(2) Largest target is 1
		 -> timer2_defaultHandler(), 

    TIMER2_InterruptHandler	PTR FTN()void  size(2) Largest target is 1
		 -> timer2_defaultHandler(), Absolute function(), 

    S2317$TIMER2_InterruptHandler	PTR FTN()void  size(2) Largest target is 1
		 -> timer2_defaultHandler(), 

    timer2_init@_timer.TIMER2_InterruptHandler	PTR FTN()void  size(2) Largest target is 1
		 -> timer2_defaultHandler(), 

    Timer1_mode_select@_timer.TIMER1_InterruptHandler	PTR FTN()void  size(2) Largest target is 1
		 -> timer1_defaultHandler(), Absolute function(), 

    TIMER1_InterruptHandler	PTR FTN()void  size(2) Largest target is 1
		 -> timer1_defaultHandler(), Absolute function(), 

    S2131$TIMER1_InterruptHandler	PTR FTN()void  size(2) Largest target is 1
		 -> timer1_defaultHandler(), Absolute function(), 

    timer1_init@_timer.TIMER1_InterruptHandler	PTR FTN()void  size(2) Largest target is 1
		 -> timer1_defaultHandler(), Absolute function(), 

    Timer0_register_size@_timer.TIMER0_InterruptHandler	PTR FTN()void  size(2) Largest target is 1
		 -> timer0_defaultHandler(), 

    Timer0_mode_select@_timer.TIMER0_InterruptHandler	PTR FTN()void  size(2) Largest target is 1
		 -> timer0_defaultHandler(), 

    Timer0_prescaler_config@_timer.TIMER0_InterruptHandler	PTR FTN()void  size(2) Largest target is 1
		 -> timer0_defaultHandler(), 

    TIMER0_InterruptHandler	PTR FTN()void  size(2) Largest target is 1
		 -> timer0_defaultHandler(), Absolute function(), 

    S1966$TIMER0_InterruptHandler	PTR FTN()void  size(2) Largest target is 1
		 -> timer0_defaultHandler(), 

    timer0_init@_timer.TIMER0_InterruptHandler	PTR FTN()void  size(2) Largest target is 1
		 -> timer0_defaultHandler(), 

    Interrupt_INTx_SetInterruptHandler@interrupt_obj.Interrupt_Handler	PTR FTN()void  size(2) Largest target is 0

    Interrupt_INTx_Clear_Flag@interrupt_obj.Interrupt_Handler	PTR FTN()void  size(2) Largest target is 0

    Interrupt_INTx_Pin@interrupt_obj.Interrupt_Handler	PTR FTN()void  size(2) Largest target is 0

    Interrupt_INTx_Edge_init@interrupt_obj.Interrupt_Handler	PTR FTN()void  size(2) Largest target is 0

    Interrupt_INTx_Disable@interrupt_obj.Interrupt_Handler	PTR FTN()void  size(2) Largest target is 0

    S1348$Interrupt_Handler	PTR FTN()void  size(2) Largest target is 0

    Interrupt_INTx_Enable@interrupt_obj.Interrupt_Handler	PTR FTN()void  size(2) Largest target is 0

    S1459$Interrupt_Handler	PTR FTN()void  size(2) Largest target is 0

    Interrupt_RBx_Init@interrupt_obj.Interrupt_Handler	PTR FTN()void  size(2) Largest target is 0

    RB7_InterruptHandler	PTR FTN()void  size(2) Largest target is 1
		 -> Absolute function(), 

    RB6_InterruptHandler	PTR FTN()void  size(2) Largest target is 1
		 -> Absolute function(), 

    RB5_InterruptHandler	PTR FTN()void  size(2) Largest target is 1
		 -> Absolute function(), 

    RB4_InterruptHandler	PTR FTN()void  size(2) Largest target is 1
		 -> Absolute function(), 

    INT2_InterruptHandler	PTR FTN()void  size(2) Largest target is 1
		 -> Absolute function(), 

    INT1_InterruptHandler	PTR FTN()void  size(2) Largest target is 1
		 -> Absolute function(), 

    INT0_InterruptHandler	PTR FTN()void  size(2) Largest target is 1
		 -> Absolute function(), 

    gpio_pin_toggle_logic@_pin_config_t	PTR const struct . size(2) Largest target is 1
		 -> led_toggle_logic@pin_obj(COMRAM[1]), 

    gpio_pin_write_logic@_pin_config_t	PTR const struct . size(2) Largest target is 1
		 -> relay_turn_off@relayy(COMRAM[1]), relay_turn_on@relayy(COMRAM[1]), relay_initialize@relayy(COMRAM[1]), led_turn_off@pin_obj(COMRAM[1]), 
		 -> led_turn_on@pin_obj(COMRAM[1]), led_initialize@pin_obj(BANK0[1]), Dc_motor_stop@dc_motor_pin_2(COMRAM[1]), Dc_motor_stop@dc_motor_pin_1(COMRAM[1]), 
		 -> Dc_motor_turn_right@dc_motor_pin_2(COMRAM[1]), Dc_motor_turn_right@dc_motor_pin_1(COMRAM[1]), Dc_motor_turn_left@dc_motor_pin_2(COMRAM[1]), Dc_motor_turn_left@dc_motor_pin_1(COMRAM[1]), 
		 -> Dc_motor_initialize@dc_motor_pin_2(COMRAM[1]), Dc_motor_initialize@dc_motor_pin_1(COMRAM[1]), 

    gpio_pin_direction_init@_pin_config_t	PTR const struct . size(2) Largest target is 1
		 -> relay_initialize@relayy(COMRAM[1]), led_initialize@pin_obj(BANK0[1]), Dc_motor_initialize@dc_motor_pin_2(COMRAM[1]), Dc_motor_initialize@dc_motor_pin_1(COMRAM[1]), 

    port_register	PTR volatile unsigned char [5] size(2) Largest target is 1
		 -> PORTE(BITBIGSFRlllll[1]), PORTD(BITBIGSFRlllll[1]), PORTC(BITBIGSFRlllll[1]), PORTB(BITBIGSFRlllll[1]), 
		 -> PORTA(BITBIGSFRlllll[1]), 

    lat_register	PTR volatile unsigned char [5] size(2) Largest target is 1
		 -> LATE(BITBIGSFRllllh[1]), LATD(BITBIGSFRllllh[1]), LATC(BITBIGSFRllllh[1]), LATB(BITBIGSFRllllh[1]), 
		 -> LATA(BITBIGSFRlllll[1]), 

    tris_register	PTR volatile unsigned char [5] size(2) Largest target is 1
		 -> TRISD(ABS[1]), TRISC(ABS[1]), TRISB(ABS[1]), TRISE(ABS[1]), 
		 -> TRISA(BITBIGSFRlllll[1]), 

    adc_select_vol_ref@_adc.ADC_InterruptHandler	PTR FTN()void  size(2) Largest target is 0

    adc_select_result_format@_adc.ADC_InterruptHandler	PTR FTN()void  size(2) Largest target is 0

    ADC_GetConversion_Status_Result@_adc.ADC_InterruptHandler	PTR FTN()void  size(2) Largest target is 0

    ADC_InterruptHandler	PTR FTN()void  size(2) Largest target is 1
		 -> Absolute function(), 

    S748$ADC_InterruptHandler	PTR FTN()void  size(2) Largest target is 0

    ADC_Init@_adc.ADC_InterruptHandler	PTR FTN()void  size(2) Largest target is 0

    led_toggle_logic@led	PTR const struct . size(2) Largest target is 1
		 -> led3(COMRAM[1]), led2(COMRAM[1]), led1(COMRAM[1]), 

    led_initialize@led	PTR const struct . size(2) Largest target is 1
		 -> led3(COMRAM[1]), led2(COMRAM[1]), led1(COMRAM[1]), 

    sp__memset	PTR void  size(2) Largest target is 0


Critical Paths under _main in COMRAM

    _main->_timer3_init
    _timer3_init->_Timer3_mode_select
    _led_initialize->_gpio_pin_direction_init
    _led_initialize->_gpio_pin_write_logic

Critical Paths under _InterruptManager in COMRAM

    _timer3_defaultHandler->_led_toggle_logic
    _timer2_defaultHandler->_led_toggle_logic
    _timer1_defaultHandler->_led_toggle_logic
    _led_toggle_logic->_gpio_pin_toggle_logic

Critical Paths under _main in BANK0

    _Application_initialize->_led_initialize
    _led_initialize->_gpio_pin_write_logic

Critical Paths under _InterruptManager in BANK0

    None.

Critical Paths under _main in BANK1

    None.

Critical Paths under _InterruptManager in BANK1

    None.

Critical Paths under _main in BANK2

    None.

Critical Paths under _InterruptManager in BANK2

    None.

Critical Paths under _main in BANK3

    None.

Critical Paths under _InterruptManager in BANK3

    None.

Critical Paths under _main in BANK4

    None.

Critical Paths under _InterruptManager in BANK4

    None.

Critical Paths under _main in BANK5

    None.

Critical Paths under _InterruptManager in BANK5

    None.

Critical Paths under _main in BANK6

    None.

Critical Paths under _InterruptManager in BANK6

    None.

Critical Paths under _main in BANK7

    None.

Critical Paths under _InterruptManager in BANK7

    None.

Critical Paths under _main in BANK8

    None.

Critical Paths under _InterruptManager in BANK8

    None.

Critical Paths under _main in BANK9

    None.

Critical Paths under _InterruptManager in BANK9

    None.

Critical Paths under _main in BANK10

    None.

Critical Paths under _InterruptManager in BANK10

    None.

Critical Paths under _main in BANK11

    None.

Critical Paths under _InterruptManager in BANK11

    None.

Critical Paths under _main in BANK12

    None.

Critical Paths under _InterruptManager in BANK12

    None.

Critical Paths under _main in BANK13

    None.

Critical Paths under _InterruptManager in BANK13

    None.

Critical Paths under _main in BANK14

    None.

Critical Paths under _InterruptManager in BANK14

    None.

Critical Paths under _main in BANK15

    None.

Critical Paths under _InterruptManager in BANK15

    None.

Call Graph Tables:

 ---------------------------------------------------------------------------------
 (Depth) Function   	        Calls       Base Space   Used Autos Params    Refs
 ---------------------------------------------------------------------------------
 (0) _main                                                 0     0      0   14128
             _Application_initialize
                        _timer3_init
 ---------------------------------------------------------------------------------
 (1) _timer3_init                                          5     3      2     464
                                             19 COMRAM     1     1      0
                                              0 BANK0      4     2      2
                 _Timer3_mode_select
 ---------------------------------------------------------------------------------
 (2) _Timer3_mode_select                                   2     0      2     120
                                             17 COMRAM     2     0      2
 ---------------------------------------------------------------------------------
 (1) _Application_initialize                               0     0      0   13664
                     _led_initialize
 ---------------------------------------------------------------------------------
 (2) _led_initialize                                       5     3      2   13664
                                              7 BANK0      5     3      2
            _gpio_pin_direction_init
               _gpio_pin_write_logic
 ---------------------------------------------------------------------------------
 (3) _gpio_pin_write_logic                                10     7      3   11088
                                             17 COMRAM     3     0      3
                                              0 BANK0      7     7      0
 ---------------------------------------------------------------------------------
 (3) _gpio_pin_direction_init                              9     7      2    1998
                                             17 COMRAM     3     1      2
                                              0 BANK0      6     6      0
 ---------------------------------------------------------------------------------
 Estimated maximum stack depth 3
 ---------------------------------------------------------------------------------
 (Depth) Function   	        Calls       Base Space   Used Autos Params    Refs
 ---------------------------------------------------------------------------------
 (4) _InterruptManager                                     6     6      0    2787
                                             11 COMRAM     6     6      0
                            _ADC_ISR
                           _INT0_ISR
                           _INT1_ISR
                           _INT2_ISR
                            _RB4_ISR
                            _RB5_ISR
                            _RB6_ISR
                            _RB7_ISR
                         _TIMER0_ISR
                         _TIMER1_ISR
                         _TIMER2_ISR
                         _TIMER3_ISR
 ---------------------------------------------------------------------------------
 (5) _TIMER3_ISR                                           0     0      0     929
                   Absolute function *
              _timer3_defaultHandler *
 ---------------------------------------------------------------------------------
 (6) _timer3_defaultHandler                                0     0      0     929
                   _led_toggle_logic
 ---------------------------------------------------------------------------------
 (5) _TIMER2_ISR                                           0     0      0     929
                   Absolute function *
              _timer2_defaultHandler *
 ---------------------------------------------------------------------------------
 (6) _timer2_defaultHandler                                0     0      0     929
                   _led_toggle_logic
 ---------------------------------------------------------------------------------
 (5) _TIMER1_ISR                                           0     0      0     929
                   Absolute function *
              _timer1_defaultHandler *
 ---------------------------------------------------------------------------------
 (6) _timer1_defaultHandler                                0     0      0     929
                   _led_toggle_logic
 ---------------------------------------------------------------------------------
 (7) _led_toggle_logic                                     5     3      2     929
                                              7 COMRAM     4     2      2
              _gpio_pin_toggle_logic
 ---------------------------------------------------------------------------------
 (8) _gpio_pin_toggle_logic                                8     6      2     194
                                              0 COMRAM     7     5      2
 ---------------------------------------------------------------------------------
 (5) _TIMER0_ISR                                           0     0      0       0
                   Absolute function *
              _timer0_defaultHandler *
 ---------------------------------------------------------------------------------
 (6) _timer0_defaultHandler                                0     0      0       0
 ---------------------------------------------------------------------------------
 (6) Absolute function(Fake)                               0     0      0       0
 ---------------------------------------------------------------------------------
 (5) _RB7_ISR                                              0     0      0       0
 ---------------------------------------------------------------------------------
 (5) _RB6_ISR                                              0     0      0       0
 ---------------------------------------------------------------------------------
 (5) _RB5_ISR                                              0     0      0       0
 ---------------------------------------------------------------------------------
 (5) _RB4_ISR                                              0     0      0       0
 ---------------------------------------------------------------------------------
 (5) _INT2_ISR                                             0     0      0       0
 ---------------------------------------------------------------------------------
 (5) _INT1_ISR                                             0     0      0       0
 ---------------------------------------------------------------------------------
 (5) _INT0_ISR                                             0     0      0       0
 ---------------------------------------------------------------------------------
 (5) _ADC_ISR                                              0     0      0       0
 ---------------------------------------------------------------------------------
 Estimated maximum stack depth 8
 ---------------------------------------------------------------------------------

 Call Graph Graphs:

 _main (ROOT)
   _Application_initialize
     _led_initialize
       _gpio_pin_direction_init
       _gpio_pin_write_logic
   _timer3_init
     _Timer3_mode_select

 _InterruptManager (ROOT)
   _ADC_ISR
   _INT0_ISR
   _INT1_ISR
   _INT2_ISR
   _RB4_ISR
   _RB5_ISR
   _RB6_ISR
   _RB7_ISR
   _TIMER0_ISR
     Absolute function(Fake) *
     _timer0_defaultHandler *
   _TIMER1_ISR
     Absolute function(Fake) *
     _timer1_defaultHandler *
       _led_toggle_logic
         _gpio_pin_toggle_logic
   _TIMER2_ISR
     Absolute function(Fake) *
     _timer2_defaultHandler *
       _led_toggle_logic
   _TIMER3_ISR
     Absolute function(Fake) *
     _timer3_defaultHandler *
       _led_toggle_logic

 Address spaces:
Name               Size   Autos  Total    Cost      Usage
BIGRAM             F7F      0       0      49        0.0%
EEDATA             400      0       0       0        0.0%
BITBANK14          100      0       0      33        0.0%
BANK14             100      0       0      34        0.0%
BITBANK13          100      0       0      31        0.0%
BANK13             100      0       0      32        0.0%
BITBANK12          100      0       0      29        0.0%
BANK12             100      0       0      30        0.0%
BITBANK11          100      0       0      27        0.0%
BANK11             100      0       0      28        0.0%
BITBANK10          100      0       0      25        0.0%
BANK10             100      0       0      26        0.0%
BITBANK9           100      0       0      23        0.0%
BANK9              100      0       0      24        0.0%
BITBANK8           100      0       0      21        0.0%
BANK8              100      0       0      22        0.0%
BITBANK7           100      0       0      19        0.0%
BANK7              100      0       0      20        0.0%
BITBANK6           100      0       0      17        0.0%
BANK6              100      0       0      18        0.0%
BITBANK5           100      0       0      15        0.0%
BANK5              100      0       0      16        0.0%
BITBANK4           100      0       0      13        0.0%
BANK4              100      0       0      14        0.0%
BITBANK3           100      0       0      10        0.0%
BANK3              100      0       0      11        0.0%
BITBANK2           100      0       0       8        0.0%
BANK2              100      0       0       9        0.0%
BITBANK1           100      0       0       6        0.0%
BANK1              100      0       0       7        0.0%
BITBANK15           80      0       0      35        0.0%
BANK15              80      0       0      36        0.0%
BITBANK0            80      0       0       4        0.0%
BANK0               80      C      23       5       27.3%
BITCOMRAM           7E      0       0       0        0.0%
COMRAM              7E     14      6D       1       86.5%
BITBIGSFRhlhlhh     18      0       0      38        0.0%
BITBIGSFRhh          D      0       0      37        0.0%
BITBIGSFRllhhhh      C      0       0      42        0.0%
BITBIGSFRllhhl       6      0       0      43        0.0%
BITBIGSFRlllhh       6      0       0      46        0.0%
BITBIGSFRhlhllh      5      0       0      39        0.0%
BITBIGSFRhlhlll      5      0       0      41        0.0%
BITBIGSFRllhllh      4      0       0      44        0.0%
BITBIGSFRllllh       4      0       0      47        0.0%
BITBIGSFRlllll       4      0       0      48        0.0%
BITBIGSFRhlhlll      1      0       0      40        0.0%
BITBIGSFRllhlll      1      0       0      45        0.0%
BIGSFR               0      0       0     200        0.0%
BITSFR               0      0       0     200        0.0%
SFR                  0      0       0     200        0.0%
STACK                0      0       0       2        0.0%
NULL                 0      0       0       0        0.0%
ABS                  0      0      90      12        0.0%
DATA                 0      0      90       3        0.0%
CODE                 0      0       0       0        0.0%


Microchip Technology PIC18 Macro Assembler V2.40 build 20220703182018 
Symbol Table                                                                                   Fri Nov 18 21:35:19 2022

                  ??_InterruptManager 0065                                   l531 136A  
                                 l283 163A                                   l550 14BA  
                                 l287 16B8                       __end_of_ADC_ISR 19B8  
                                 _ret 0050                   led_initialize@F3043 0028  
                                 prod 000FF3                                   tosl 000FFD  
               relay_initialize@F3037 0024                                   wreg 000FE8  
               _timer2_defaultHandler 191E                       __end_of_RB4_ISR 19A8  
                     __end_of_RB5_ISR 19A4                       __end_of_RB6_ISR 19A0  
                     __end_of_RB7_ISR 199C                                  l1033 1958  
                                l1034 1958                                  l1060 158C  
                                l1062 1618                                  l1039 189A  
                                l1090 17C6                                  l1086 17A2  
                                l1088 17C4                                  l5301 14A2  
                                l4501 136C                                  l5303 1352  
                                l4511 13CC                                  l4503 1372  
                                l4513 1430                                  l4505 1384  
                                l4507 13A2                                  l3651 1782  
                                l4517 148E                                  l4509 13C4  
                                l3653 179C                                  l4519 14B8  
                                l3655 17A4                                  l4481 123A  
                                l3657 17BE                                  l5257 1944  
                                l4491 1326                                  l4483 125C  
                                l4475 1204                                  l4651 186A  
                                l5259 1948                                  l4485 1264  
                                l4493 1368                                  l4477 1208  
                                l4581 1620                                  l4661 15AC  
                                l4653 156C                                  l4487 12C8  
                                l4479 121A                                  l4591 168A  
                                l4583 1632                                  l4671 15FE  
                                l4663 15B8                                  l4655 1570  
                                l4593 1696                                  l4585 163E  
                                l4673 1600                                  l4665 15D8  
                                l4681 1616                                  l4657 1584  
                                l4587 1674                                  l4595 16B4  
                                l4579 161A                                  l4675 1610  
                                l4667 15E8                                  l4659 158E  
                                l4589 1676                                  l4677 1612  
                                l4669 15FC                                  l4679 1614  
                                STR_1 1011                                  _LATA 000F89  
                                _LATB 000F8A                                  _LATC 000F8B  
                                _LATD 000F8C                                  _LATE 000F8D  
                                u2350 179C                                  u2351 1798  
                                u3400 125C                                  u2360 17BE  
                                u3401 1258                                  u2361 17BA  
                                u3430 133E                                  u3414 1284  
                                u3431 1338                                  u3415 1280  
                                u3440 1340                                  u3424 12E8  
                                u3600 1584                                  u3425 12E4  
                                u3601 1580                                  u3450 1384  
                                u3451 1380                                  u3380 121A  
                                u3460 13A2                                  u3540 1632  
                                u3381 1216                                  u3461 139E  
                                u3541 162E                                  u3390 123A  
                                u3470 13C4                                  u3391 1236  
                                u3471 13C0                                  u3555 1686  
                                u3484 13EC                                  u3485 13E8  
                                u3557 168A                                  u3494 1450  
                                u3495 144C                                  _TMR2 000FCC  
                                _led1 0059                                  _led2 0058  
                                _led3 0057                                  _main 1944  
                                fsr2h 000FDA                                  indf2 000FDF  
                                fsr1l 000FE1                                  fsr2l 000FD9  
            ?_gpio_pin_direction_init 006B                                  btemp 006E  
              __end_of_led_initialize 16BA                                  prodh 000FF4  
                                prodl 000FF3                                  start 000E  
                _RB7_InterruptHandler 0011                          ___param_bank 000000  
              ?_gpio_pin_toggle_logic 005A                  _timer3_preload_value 0001  
                _gpio_pin_write_logic 136C                           ?_TIMER0_ISR 005A  
                         ?_TIMER1_ISR 005A                           ?_TIMER2_ISR 005A  
                         ?_TIMER3_ISR 005A                      __end_of_INT0_ISR 19B4  
                    __end_of_INT1_ISR 19B0                      __end_of_INT2_ISR 19AC  
              ?_timer0_defaultHandler 005A                                 ?_main 005A  
                               _EEADR 000FA9                                 i2l304 16D0  
                               i2l308 172A                                 i2l450 19B6  
                               i2l640 19AE                                 i2l636 19B2  
                               i2l644 19AA                                 i2l652 19A2  
                               i2l660 199A                                 i2l564 156A  
                               i2l648 19A6                                 i2l656 199E  
                               i2l838 11E8                                 i2l943 1832  
                               i2l882 1868                                 i2l988 18CC  
                 relay_turn_off@F3047 0022                                 _TMR0H 000FD7  
                               _TMR1H 000FCF                                 _TMR0L 000FD6  
                               _TMR1L 000FCE                                 _TMR3H 000FB3  
                               _TMR3L 000FB2                                 _PORTA 000F80  
                               _PORTB 000F81                                 _PORTC 000F82  
                               _PORTD 000F83                                 _PORTE 000F84  
                               _TRISA 000F92                                 _TRISB 000F93  
                               _TRISC 000F94                                 _TRISD 000F95  
                               _TRISE 000F96                                 pclath 000FFA  
                               pclatu 000FFB                                 tablat 000FF5  
                               ttemp5 006F                                 ttemp6 0072  
                               ttemp7 0076                                 status 000FD8  
                               wtemp8 006F                       ?_led_initialize 009E  
                     __initialization 172C               led_toggle_logic@pin_obj 0064  
                        __end_of_main 1960                 ?_gpio_pin_write_logic 006B  
                           ??_ADC_ISR 005A                                ??_main 006E  
       __end_of_timer1_defaultHandler 197A                         __activetblptr 000003  
                    led_turn_on@F3048 0027                             ??_RB4_ISR 005A  
                           ??_RB5_ISR 005A                             ??_RB6_ISR 005A  
                           ??_RB7_ISR 005A                ?_timer2_defaultHandler 005A  
                       _counter_value 0005                                _ADRESH 000FC4  
                              _EEADRH 000FAA                                _ADRESL 000FC3  
                              _EEDATA 000FA8                                _EECON2 000FA7  
                   timer3_init@_timer 0097                                i2l1012 1942  
                              i2l1024 191C                                i2l1009 1996  
                              i2l1019 1978                                i2l2103 199C  
                              i2l2107 1998                                i2l1083 17FC  
                              i2l2151 183A                                i2l2153 183E  
                              i2l2083 19B0                                i2l2091 19A8  
                              i2l2155 1850                                i2l2147 1834  
                              i2l2149 1836                                i2l2079 19B4  
                              i2l2087 19AC                                i2l2095 19A4  
                              i2l2099 19A0                                i2l3501 1512  
                              i2l4401 1090                                i2l4411 10CC  
                              i2l4403 109E                                i2l4421 1108  
                              i2l4413 10DA                                i2l4405 10AC  
                              i2l3711 17FE                                i2l4431 1144  
                              i2l4423 1116                                i2l4415 10E8  
                              i2l4407 10BA                                i2l3561 16CC  
                              i2l3713 1800                                i2l3721 189C  
                              i2l4441 1176                                i2l4433 1148  
                              i2l4425 111A                                i2l4417 10EC  
                              i2l4409 10BE                                i2l3491 14BC  
                              i2l3563 16D4                                i2l3715 1804  
                              i2l3723 18A2                                i2l3731 17CE  
                              i2l4451 11A8                                i2l4443 1184  
                              i2l4435 1156                                i2l4427 1128  
                              i2l4419 10FA                                i2l1973 1992  
                              i2l3493 14BC                                i2l3565 170A  
                              i2l3557 16BA                                i2l3717 1808  
                              i2l3645 191E                                i2l3725 18B4  
                              i2l3733 17D2                                i2l4461 11E4  
                              i2l4453 11B6                                i2l4445 1188  
                              i2l4437 1164                                i2l4429 1136  
                              i2l3495 14CE                                i2l3567 170C  
                              i2l3559 16BA                                i2l3647 1960  
                              i2l3719 181A                                i2l3735 17E4  
                              i2l3727 17C8                                i2l4455 11C4  
                              i2l4447 1196                                i2l4439 1168  
                              i2l4391 105E                                i2l4383 1030  
                              i2l3497 14EC                                i2l3569 171E  
                              i2l3649 18F8                                i2l3729 17CA  
                              i2l4457 11C8                                i2l4449 11A4  
                              i2l4393 106C                                i2l4385 103E  
                              i2l3499 150E                                i2l4459 11D6  
                              i2l4395 1070                                i2l4387 104C  
                              i2l4397 107E                                i2l4389 1050  
                              i2l4399 108C               _TIMER0_InterruptHandler 000D  
                       _tris_register 003B                   led_toggle_logic@led 0061  
             ?_Application_initialize 005A                          ?_timer3_init 0097  
                              clear_0 1772                 led_initialize@pin_obj 00A2  
                              isa$std 000001                          __pdataCOMRAM 0031  
                        __mediumconst 0000                                tblptrh 000FF7  
                              tblptrl 000FF6                                tblptru 000FF8  
       __end_of_timer3_defaultHandler 191E                            __accesstop 0080  
             __end_of__initialization 1778                             ?_INT0_ISR 005A  
                           ?_INT1_ISR 005A                             ?_INT2_ISR 005A  
                       ___rparam_used 000001                     led_initialize@led 009E  
                   led_initialize@ret 00A1                ??_gpio_pin_write_logic 0097  
                      __pcstackCOMRAM 005A        __end_of_Application_initialize 189C  
                        __pidataBANK0 197A            __end_of_Timer3_mode_select 17C8  
            fp__timer1_defaultHandler 0000                      _led_toggle_logic 16BA  
               _INT0_InterruptHandler 001D                            ??_INT0_ISR 005A  
                          ??_INT1_ISR 005A                            ??_INT2_ISR 005A  
             ??_gpio_pin_toggle_logic 005C               ??_timer0_defaultHandler 005A  
                   led_turn_off@F3053 0026                          ??_TIMER0_ISR 005A  
                        ??_TIMER1_ISR 0065                          ??_TIMER2_ISR 0065  
                        ??_TIMER3_ISR 0065              Dc_motor_initialize@F3042 0030  
            Dc_motor_initialize@F3044 002F                               _ADC_ISR 19B4  
             _TIMER1_InterruptHandler 000B                               _RB4_ISR 19A4  
                             _RB5_ISR 19A0                               _RB6_ISR 199C  
                             _RB7_ISR 1998                               i2u40_40 1850  
                             i2u40_41 184C                               i2u41_48 1856  
                             i2u41_49 1868                      ??_led_initialize 00A0  
                          _btn_values 1001                    __end_of_TIMER0_ISR 186A  
                  __end_of_TIMER1_ISR 1834                    __end_of_TIMER2_ISR 18CE  
                  __end_of_TIMER3_ISR 17FE              fp__timer3_defaultHandler 0000  
            Timer3_mode_select@_timer 006B                  _ADC_InterruptHandler 001F  
                             __Hparam 0000                               __Lparam 0000  
                        __psmallconst 1000                               __pcinit 172C  
                             __ramtop 1000                               __ptext0 1944  
                             __ptext1 156C                               __ptext2 1782  
                             __ptext3 186A                               __ptext4 161A  
                             __ptext5 136C                               __ptext6 1204  
                             __ptext8 17C8                               __ptext9 18F8  
                           _T0CONbits 000FD5               ??_timer2_defaultHandler 0065  
                           _T1CONbits 000FCD                             _T2CONbits 000FCA  
                           _T3CONbits 000FB1                        __pintcode_body 1016  
                end_of_initialization 1778                               int_func 1016  
   gpio_pin_write_logic@_pin_config_t 006B                            _timer0_obj 008A  
                          _timer1_obj 0045                               postdec1 000FE5  
                             postdec2 000FDD                            _timer2_obj 004B  
                          _timer3_obj 0051                               postinc0 000FEE  
                             postinc2 000FDE                 _INT1_InterruptHandler 001B  
                           _PORTBbits 000F81                      _InterruptManager 0008  
               _timer1_defaultHandler 1960               _TIMER2_InterruptHandler 0007  
                _timer1_preload_value 0009                    relay_turn_on@F3042 0023  
  gpio_pin_toggle_logic@_pin_config_t 005A              __end_of_led_toggle_logic 172C  
             _gpio_pin_direction_init 1204                         __pidataCOMRAM 18CE  
                      _timer0_preload 000F                   start_initialization 172C  
                _RB4_InterruptHandler 0017                          _counter1_obj 0091  
                        _lat_register 0031                    _Timer3_mode_select 1782  
               _timer3_defaultHandler 18F8                   ?_Timer3_mode_select 006B  
       __end_of_gpio_pin_toggle_logic 156C                           __pdataBANK0 0080  
                            ?_ADC_ISR 005A         __end_of_timer0_defaultHandler 1998  
              ?_timer1_defaultHandler 005A                              ?_RB4_ISR 005A  
                            ?_RB5_ISR 005A                              ?_RB6_ISR 005A  
                            ?_RB7_ISR 005A                  ??_Timer3_mode_select 006D  
                         __pbssCOMRAM 0001                         __pcstackBANK0 0097  
                      timer3_init@ret 006D                 _INT2_InterruptHandler 0019  
           ??_gpio_pin_direction_init 0097                             __pintcode 0008  
           gpio_pin_write_logic@logic 006D               _TIMER3_InterruptHandler 0003  
                         __smallconst 1000         __end_of_timer2_defaultHandler 1944  
              ?_timer3_defaultHandler 005A                              _INT0_ISR 19B0  
                            _INT1_ISR 19AC                              _INT2_ISR 19A8  
            ??_Application_initialize 006E              __end_of_InterruptManager 1204  
                            _PIE1bits 000F9D                              _PIE2bits 000FA0  
                            i2u211_40 14CE                              i2u211_41 14CA  
                            i2u212_40 14EC                              i2u212_41 14E8  
                            i2u213_40 150E                              i2u213_41 150A  
                            i2u310_40 103E                              i2u310_41 103A  
                            i2u214_44 1532                              i2u214_45 152E  
                            i2u311_40 104C                              i2u311_41 1048  
                            i2u320_40 10DA                              i2u312_40 105E  
                            i2u320_41 10D6                              i2u312_41 105A  
                            i2u241_40 181A                              i2u321_40 10E8  
                            i2u313_40 106C                              i2u241_41 1816  
                            i2u321_41 10E4                              i2u313_41 1068  
                            i2u330_40 1176                              i2u322_40 10FA  
                            i2u314_40 107E                              i2u330_41 1172  
                            i2u322_41 10F6                              i2u314_41 107A  
                            i2u227_40 16CC                              i2u242_48 1820  
                            i2u243_40 18B4                              i2u331_40 1184  
                            i2u323_40 1108                              i2u315_40 108C  
                            i2u227_41 16C8                              i2u242_49 1832  
                            i2u243_41 18B0                              i2u331_41 1180  
                            i2u323_41 1104                              i2u315_41 1088  
                            i2u332_40 1196                              i2u324_40 1116  
                            i2u316_40 109E                              i2u332_41 1192  
                            i2u324_41 1112                              i2u316_41 109A  
                            i2u228_45 171C                              i2u228_47 171E  
                            i2u244_48 18BA                              i2u245_40 17E4  
                            i2u333_40 11A4                              i2u325_40 1128  
                            i2u317_40 10AC                              i2u244_49 18CC  
                            i2u245_41 17E0                              i2u333_41 11A0  
                            i2u325_41 1124                              i2u317_41 10A8  
                            i2u334_40 11B6                              i2u326_40 1136  
                            i2u318_40 10BA                              i2u334_41 11B2  
                            i2u326_41 1132                              i2u318_41 10B6  
                            i2u246_48 17EA                              i2u335_40 11C4  
                            i2u327_40 1144                              i2u319_40 10CC  
                            i2u246_49 17FC                              i2u335_41 11C0  
                            i2u327_41 1140                              i2u319_41 10C8  
                            i2u336_40 11D6                              i2u328_40 1156  
                            i2u336_41 11D2                              i2u328_41 1152  
                            i2u337_40 11E4                              i2u329_40 1164  
                            i2u337_41 11E0                              i2u329_41 1160  
                            _PIR1bits 000F9E                              _PIR2bits 000FA1  
                _RB5_InterruptHandler 0015                         ??_timer3_init 0099  
                          _ADCON0bits 000FC2                            _ADCON1bits 000FC1  
                          _ADCON2bits 000FC0                 led_toggle_logic@F3058 0025  
            fp__timer0_defaultHandler 0000       __end_of_gpio_pin_direction_init 136C  
             gpio_pin_write_logic@ret 009D                           _INTCON2bits 000FF1  
                         _INTCON3bits 000FF0                             copy_data0 1740  
                           copy_data1 1760                    Dc_motor_stop@F3065 002A  
                  Dc_motor_stop@F3067 0029                            _EECON1bits 000FA6  
                            __Hrparam 0000                  _timer2_preload_value 0021  
                            __Lrparam 0000                     ?_led_toggle_logic 0061  
                  ??_led_toggle_logic 0063                    __end_of_btn_values 1011  
                 __end_of_timer3_init 161A                              __ptext10 189C  
                            __ptext11 191E                              __ptext20 19A0  
                            __ptext12 17FE                              __ptext21 19A4  
                            __ptext13 1960                              __ptext22 19A8  
                            __ptext14 16BA                              __ptext23 19AC  
                            __ptext15 14BC                              __ptext24 19B0  
                            __ptext16 1834                              __ptext25 19B4  
                            __ptext17 1992                              __ptext26 0000  
                            __ptext18 1998                              __ptext19 199C  
            fp__timer2_defaultHandler 0000               Dc_motor_turn_left@F3051 002E  
             Dc_motor_turn_left@F3053 002D                              isa$xinst 000000  
                            int$flags 006E               ??_timer1_defaultHandler 0065  
gpio_pin_direction_init@_pin_config_t 006B                            _INTCONbits 000FF2  
                _RB6_InterruptHandler 0013          __end_of_gpio_pin_write_logic 14BC  
            Dc_motor_turn_right@F3060 002B              Dc_motor_turn_right@F3058 002C  
                            intlevel2 0000                 _gpio_pin_toggle_logic 14BC  
                          _TIMER0_ISR 1834                            _TIMER1_ISR 17FE  
                          _TIMER2_ISR 189C                            _TIMER3_ISR 17C8  
                         _timer3_init 156C                _Application_initialize 186A  
               _timer0_defaultHandler 1992               ??_timer3_defaultHandler 0065  
          gpio_pin_direction_init@ret 006D                         _port_register 0080  
                   ?_InterruptManager 005A                        _led_initialize 161A  
